MPASM 5.73              TESTZ209HARDWARE.ASM   5-2-2018  7:49:22         PAGE  1


LOC  OBJECT CODE     LINE SOURCE TEXT
  VALUE

                      00001 ; TODO INSERT CONFIG CODE HERE USING CONFIG BITS GENERATOR
                      00002 ; ozh - note I followed the configurations from another project which was MCC generated
                      00003 
                      00004 ; PIC16F18855 Configuration Bit Settings
                      00005 
                      00006 ; Assembly source line config statements
                      00007 
                      00008 #include "p16f18855.inc"
                      00001         LIST
                      00002 
                      00003 ;==========================================================================
                      00004 ; Build date : Mar 21 2017
                      00005 ;  MPASM PIC16F18855 processor include
                      00006 ; 
                      00007 ;  (c) Copyright 1999-2017 Microchip Technology, All rights reserved
                      00008 ;==========================================================================
                      00009 
                      06451         LIST
                      00009 
                      00010 ; CONFIG1
                      00011 ; __config 0x3FEC
8007   3FEC           00012  __CONFIG _CONFIG1, _FEXTOSC_OFF & _RSTOSC_HFINT1 & _CLKOUTEN_OFF & _CSWEN_ON & _FCMEN_ON
                      00013 ; CONFIG2
                      00014 ; __config 0x3FFF
8008   3FFF           00015  __CONFIG _CONFIG2, _MCLRE_ON & _PWRTE_OFF & _LPBOREN_OFF & _BOREN_ON & _BORV_LO & _ZCD_OFF & _PPS1WAY_O
                            N & _STVREN_ON
                      00016 ; CONFIG3
                      00017 ; __config 0x3F9F
8009   3F9F           00018  __CONFIG _CONFIG3, _WDTCPS_WDTCPS_31 & _WDTE_OFF & _WDTCWS_WDTCWS_7 & _WDTCCS_SC
                      00019 ; CONFIG4
                      00020 ; __config 0x1FFF
800A   1FFF           00021  __CONFIG _CONFIG4, _WRT_OFF & _SCANE_available & _LVP_OFF
                      00022 ; CONFIG5
                      00023 ; __config 0x3FFF
800B   3FFF           00024  __CONFIG _CONFIG5, _CP_OFF & _CPD_OFF
                      00025  
                      00026     Errorlevel -302 
                      00027 ;------------------------------
                      00028 ;       Variables
                      00029 ;------------------------------
                      00030 
                      00031  CBLOCK 0x020
  00000020            00032         LOOP_COUNTER_1
  00000021            00033         LOOP_COUNTER_2
  00000022            00034         ledCounter
                      00035  ENDC
                      00036  ; 0x70-0x7F  Common RAM - Special variables available in all banks
                      00037  CBLOCK 0x070
                      00038         ; The 12 bit output level
  00000070            00039         OUTPUT_HI
  00000071            00040         OUTPUT_LO
                      00041  ENDC
                      00042  
MPASM 5.73              TESTZ209HARDWARE.ASM   5-2-2018  7:49:22         PAGE  2


LOC  OBJECT CODE     LINE SOURCE TEXT
  VALUE

                      00043 ;-------------------------------------
                      00044 ;       DEFINE STATEMENTS
                      00045 ;-------------------------------------
                      00046 
                      00047 ; Useful bit definitions for clarity    
                      00048 #define ZERO            STATUS,Z        ; Zero Flag
                      00049 #define CARRY           STATUS,C        ; Carry Flag
                      00050 #define BORROW          STATUS,C        ; Borrow is the same as Carry
                      00051 #define STEPSIZE        0x10
                      00052 #define DAC0            0x00
                      00053 #define DAC1            0x01
                      00054 #define SAVETOW         0x00
                      00055 #define SAVETOF         0x01
                      00056 #define USEACCESSBANK   0x00 ;untested
                      00057 #define USEBSR          0x01 ;untested
                      00058 #define LEDLAST         0x07 ; last LED on pin 7 of port C
                      00059  
                      00060 RES_VECT  CODE    0x0000            ; processor reset vector
0000   2???           00061     GOTO    START                   ; go to beginning of program
                      00062 
                      00063 ; TODO ADD INTERRUPTS HERE IF USED
                      00064 
                      00065 MAIN_PROG CODE                      ; let linker place main program
                      00066 
0000                  00067 START
0000   2???           00068         call Osc_Init
0001   2???           00069         call Init_Ports
                      00070 
                      00071         ; init variables
0002   01F0           00072         clrf OUTPUT_HI  ; init output var
0003   01F1           00073         clrf OUTPUT_LO  ;       both bytes
                      00074 
                      00075         ;BANKSEL 
                      00076      
                      00077 ;infinite hardware test loop: do a ramp 0-4095 to DAC0 of an MP4922 dual dac via SPI
0004                  00078 MainLoop:
                      00079         ; increment the 12 bit output value
                      00080         ; yes, two bytes = 16 bits, but the top 4 bits will be ignored
0004   0FF1           00081         incfsz  OUTPUT_LO,SAVETOF
0005   2???           00082         goto    IncrementDone   ; no overflow,we're done
0006   0FF0           00083         incfsz  OUTPUT_HI,SAVETOF ; overflow, increment the upper
0007   2???           00084         goto    IncrementDone   ; no overflow,we're done
0008   2???           00085         call    Toggle_LED          ; don't care about overflow of upper byte   
0009                  00086 IncrementDone:
                      00087         ; output the 12 bit value to the DAC
0009   3000           00088         movlw DAC0                  ; output to DAC0
000A   2???           00089         call Output2DAC
000B   2???           00090         goto MainLoop                          ; loop forever
                      00091 
000C                  00092 Output2DAC:
                      00093         ; output the OUTPUT_HI and OUTPUT_LO to the DAC# (0 or 1) specified in W
                      00094 
000C   2???           00095         call Long_Delay
MPASM 5.73              TESTZ209HARDWARE.ASM   5-2-2018  7:49:22         PAGE  3


LOC  OBJECT CODE     LINE SOURCE TEXT
  VALUE

000D   2???           00096         call Long_Delay
000E   2???           00097         call Long_Delay
000F   2???           00098         call Long_Delay
0010   2???           00099         call Long_Delay
0011   2???           00100         call Long_Delay
0012   2???           00101         call Long_Delay
0013   2???           00102         call Long_Delay
                      00103         
0014   2???           00104         call Toggle_LED
                      00105 
0015   0008           00106         return
                      00107 
                      00108     ; ***** Miscellaneous Routines*********************************************
                      00109 ; Toggle the state of the LED on Port C
0016                  00110 Toggle_LED
0016   0020           00111         movlb 0
0017   1B8E           00112         btfsc PORTC, LEDLAST    ; is the LED off?
0018   3???           00113         bra Is_On                       ; Go to Is_On.  Will be skipped if the LED is off
0019                  00114 Is_Off                                  ; Executes if the LED is off
0019   178E           00115         bsf PORTC, LEDLAST
                      00116         ;bcf PORTC, LEDLAST  ;TEST ONLY - keep it off to see if we are working at all (apparently not it
                             stays on)
001A   0008           00117         return
001B                  00118 Is_On                                   ; Executes if the LED is on
001B   138E           00119         bcf PORTC, LEDLAST
001C   0008           00120         return
                      00121 
                      00122 ; -----------------------------------------------------------------------
                      00123 ; The pins on the PIC are organized into ports.  Each port is about 8 bits wide.  However this
                      00124 ; is only a general rule and your device may vary.
                      00125 
                      00126 ; To setup a particular pin, we need to put values into the corresponding Analog Select
                      00127 ; register, and Tri-state register.  This ensures that our pin will be an output, and that
                      00128 ; it will be a digital output.
001D                  00129 Init_Ports
001D   0020           00130         movlb 0
001E   018E           00131         clrf PORTC
001F   003E           00132         movlb d'30'
0020   01CE           00133         clrf ANSELC     ; Make Port C all Digital
0021   0020           00134         movlb 0
0022   0193           00135         clrf TRISC      ; Make Port C all output
                      00136 
                      00137     ; set up SPI, following the MCC generated C code: void SPI2_Initialize(void)
0023   0023           00138         movlb d'3'          ; select the bank
                      00139         ; SMP Middle; CKE Idle to Active; 
0024   0199           00140         clrf SSP2STAT   ;SSP2STAT = 0x00;
                      00141         ; SSPEN enabled; CKP Idle:Low, Active:High; SSPM FOSC/4; 250kHz
0025   3020           00142         movlw 0x20          ;SSP2CON1 = 0x20;
0026   009A           00143         movwf SSP2CON1
                      00144         ; SSPADD 0; 
0027   0197           00145         clrf SSP2ADD    ;SSP2ADD = 0x00;
0028   0008           00146         return
                      00147 
MPASM 5.73              TESTZ209HARDWARE.ASM   5-2-2018  7:49:22         PAGE  4


LOC  OBJECT CODE     LINE SOURCE TEXT
  VALUE

                      00148 ; convert working C code from DualEG (mcc generated) to ASM
                      00149 ;void OSCILLATOR_Initialize(void)
                      00150 ;{
0029                  00151 Osc_Init
0029   0031           00152         movlb d'17'
                      00153     ;// NOSC HFINTOSC; NDIV 1; 
                      00154     ;OSCCON1 = 0x60;
002A   3060           00155         movlw 0x60
002B   008D           00156         movwf OSCCON1
                      00157     ;// CSWHOLD may proceed; SOSCPWR Low power; 
                      00158     ;OSCCON3 = 0x00;
002C   3000           00159         movlw 0x00              ; yes, I know I can 'clrf' this, but it may change later
002D   008F           00160         movwf OSCCON3
                      00161     ;// MFOEN disabled; LFOEN disabled; ADOEN disabled; SOSCEN disabled; EXTOEN disabled; HFOEN disabled
                            ; 
                      00162     ;OSCEN = 0x00;
002E   3000           00163         movlw 0x00
002F   0091           00164         movwf OSCEN
                      00165     ;// HFFRQ 32_MHz; 
                      00166     ;OSCFRQ = 0x06;
0030   3006           00167         movlw 0x06
0031   0093           00168         movwf OSCFRQ
                      00169     ;// HFTUN 0; 
                      00170     ;OSCTUNE = 0x00;
0032   3000           00171         movlw 0x00
0033   0092           00172         movwf OSCTUNE
0034   0008           00173     return
                      00174 ;}
0035                  00175 Long_Delay
0035   30FA           00176         movlw d'250'        ;this literal inversely controls flash rate
0036   00A0           00177         movwf LOOP_COUNTER_1
0037                  00178 innerLoop:
0037   2???           00179         call Delay25us
Message[305]: Using default destination of 1 (file).
0038   0BA0           00180         decfsz LOOP_COUNTER_1
0039   2???           00181         goto innerLoop
003A   0008           00182         return
                      00183 ; 25 uS delay
                      00184 ; generated from this site: http://www.piclist.com/techref/piclist/codegen/delay.htm?key=delay+routine&f
                            rom
                      00185 ;
                      00186 ; Delay = 2.5e-005 seconds
                      00187 ; Clock frequency = 32 MHz
                      00188 
                      00189 ; Actual delay = 2.5e-005 seconds = 200 cycles
                      00190 ; Error = 0 %
                      00191 
                      00192         cblock
  00000072            00193         d1
                      00194         endc
003B                  00195 Delay25us:
                      00196                         ;199 cycles
003B   3042           00197         movlw   0x42
MPASM 5.73              TESTZ209HARDWARE.ASM   5-2-2018  7:49:22         PAGE  5


LOC  OBJECT CODE     LINE SOURCE TEXT
  VALUE

003C   00F2           00198         movwf   d1
003D                  00199 Delay_0
003D   0BF2           00200         decfsz  d1, f
003E   2???           00201         goto    Delay_0
                      00202 
                      00203                         ;1 cycle
003F   0000           00204         nop
0040   0008           00205         RETURN
                      00206 ; Generated by http://www.piclist.com/cgi-bin/delay.exe (December 7, 2005 version)
                      00207 ; Tue Dec 26 20:16:14 2017 GMT
                      00208 ; S
3FEC 3FFF 3F9F 1FFF 3F00209     END
       FF 
MPASM 5.73              TESTZ209HARDWARE.ASM   5-2-2018  7:49:22         PAGE  6


SYMBOL TABLE
  LABEL                             VALUE 

ABDEN                             00000000
ABDOVF                            00000007
ACC0                              00000000
ACC1                              00000001
ACC10                             00000002
ACC11                             00000003
ACC12                             00000004
ACC13                             00000005
ACC14                             00000006
ACC15                             00000007
ACC2                              00000002
ACC3                              00000003
ACC4                              00000004
ACC5                              00000005
ACC6                              00000006
ACC7                              00000007
ACC8                              00000000
ACC9                              00000001
ACCM                              00000004
ACKDT                             00000005
ACKEN                             00000004
ACKSTAT                           00000006
ACKTIM                            00000007
ADACC                             00000090
ADACC0                            00000000
ADACC1                            00000001
ADACC10                           00000002
ADACC11                           00000003
ADACC12                           00000004
ADACC13                           00000005
ADACC14                           00000006
ADACC15                           00000007
ADACC2                            00000002
ADACC3                            00000003
ADACC4                            00000004
ADACC5                            00000005
ADACC6                            00000006
ADACC7                            00000007
ADACC8                            00000000
ADACC9                            00000001
ADACCH                            00000091
ADACCL                            00000090
ADACLR                            00000003
ADACQ                             0000009D
ADACQ0                            00000000
ADACQ1                            00000001
ADACQ2                            00000002
ADACQ3                            00000003
ADACQ4                            00000004
ADACQ5                            00000005
ADACQ6                            00000006
ADACQ7                            00000007
ADACT                             00000099
MPASM 5.73              TESTZ209HARDWARE.ASM   5-2-2018  7:49:22         PAGE  7


SYMBOL TABLE
  LABEL                             VALUE 

ADACT0                            00000000
ADACT1                            00000001
ADACT2                            00000002
ADACT3                            00000003
ADACT4                            00000004
ADAOV                             00000007
ADCACTPPS                         00000EC3
ADCACTPPS0                        00000000
ADCACTPPS1                        00000001
ADCACTPPS2                        00000002
ADCACTPPS3                        00000003
ADCACTPPS4                        00000004
ADCALC0                           00000004
ADCALC1                           00000005
ADCALC2                           00000006
ADCAP                             0000009B
ADCAP0                            00000000
ADCAP1                            00000001
ADCAP2                            00000002
ADCAP3                            00000003
ADCAP4                            00000004
ADCCS0                            00000000
ADCCS1                            00000001
ADCCS2                            00000002
ADCCS3                            00000003
ADCCS4                            00000004
ADCCS5                            00000005
ADCLK                             00000098
ADCMD                             00000005
ADCNT                             0000010C
ADCNT0                            00000000
ADCNT1                            00000001
ADCNT2                            00000002
ADCNT3                            00000003
ADCNT4                            00000004
ADCNT5                            00000005
ADCNT6                            00000006
ADCNT7                            00000007
ADCON0                            00000093
ADCON1                            00000094
ADCON2                            00000095
ADCON3                            00000096
ADCONT                            00000006
ADCRS0                            00000004
ADCRS1                            00000005
ADCRS2                            00000006
ADCS                              00000004
ADDEN                             00000003
ADDSEN                            00000000
ADERR                             00000116
ADERR0                            00000000
ADERR1                            00000001
ADERR10                           00000002
MPASM 5.73              TESTZ209HARDWARE.ASM   5-2-2018  7:49:22         PAGE  8


SYMBOL TABLE
  LABEL                             VALUE 

ADERR11                           00000003
ADERR12                           00000004
ADERR13                           00000005
ADERR14                           00000006
ADERR15                           00000007
ADERR2                            00000002
ADERR3                            00000003
ADERR4                            00000004
ADERR5                            00000005
ADERR6                            00000006
ADERR7                            00000007
ADERR8                            00000000
ADERR9                            00000001
ADERRH                            00000117
ADERRL                            00000116
ADFLTR                            00000114
ADFLTR0                           00000000
ADFLTR1                           00000001
ADFLTR10                          00000002
ADFLTR11                          00000003
ADFLTR12                          00000004
ADFLTR13                          00000005
ADFLTR14                          00000006
ADFLTR15                          00000007
ADFLTR2                           00000002
ADFLTR3                           00000003
ADFLTR4                           00000004
ADFLTR5                           00000005
ADFLTR6                           00000006
ADFLTR7                           00000007
ADFLTR8                           00000000
ADFLTR9                           00000001
ADFLTRH                           00000115
ADFLTRL                           00000114
ADFM0                             00000002
ADFM1                             00000003
ADFRM0                            00000002
ADFRM1                            00000003
ADFVR0                            00000000
ADFVR1                            00000001
ADGO                              00000000
ADGPOL                            00000005
ADIE                              00000000
ADIF                              00000000
ADIPEN                            00000006
ADLTH                             0000010E
ADLTH0                            00000000
ADLTH1                            00000001
ADLTH10                           00000002
ADLTH11                           00000003
ADLTH12                           00000004
ADLTH13                           00000005
ADLTH14                           00000006
MPASM 5.73              TESTZ209HARDWARE.ASM   5-2-2018  7:49:22         PAGE  9


SYMBOL TABLE
  LABEL                             VALUE 

ADLTH15                           00000007
ADLTH2                            00000002
ADLTH3                            00000003
ADLTH4                            00000004
ADLTH5                            00000005
ADLTH6                            00000006
ADLTH7                            00000007
ADLTH8                            00000000
ADLTH9                            00000001
ADLTHH                            0000010F
ADLTHL                            0000010E
ADLTHR                            00000005
ADMACT                            00000003
ADMATH                            00000004
ADMD0                             00000000
ADMD1                             00000001
ADMD2                             00000002
ADMSK1                            00000001
ADMSK2                            00000002
ADMSK3                            00000003
ADMSK4                            00000004
ADMSK5                            00000005
ADNREF                            00000004
ADOEN                             00000002
ADON                              00000007
ADOR                              00000002
ADPCH                             0000009E
ADPCH0                            00000000
ADPCH1                            00000001
ADPCH2                            00000002
ADPCH3                            00000003
ADPCH4                            00000004
ADPCH5                            00000005
ADPPOL                            00000007
ADPRE                             0000009C
ADPRE0                            00000000
ADPRE1                            00000001
ADPRE2                            00000002
ADPRE3                            00000003
ADPRE4                            00000004
ADPRE5                            00000005
ADPRE6                            00000006
ADPRE7                            00000007
ADPREF0                           00000000
ADPREF1                           00000001
ADPREV                            0000008E
ADPREV0                           00000000
ADPREV1                           00000001
ADPREV10                          00000002
ADPREV11                          00000003
ADPREV12                          00000004
ADPREV13                          00000005
ADPREV14                          00000006
MPASM 5.73              TESTZ209HARDWARE.ASM   5-2-2018  7:49:22         PAGE 10


SYMBOL TABLE
  LABEL                             VALUE 

ADPREV15                          00000007
ADPREV2                           00000002
ADPREV3                           00000003
ADPREV4                           00000004
ADPREV5                           00000005
ADPREV6                           00000006
ADPREV7                           00000007
ADPREV8                           00000000
ADPREV9                           00000001
ADPREVH                           0000008F
ADPREVL                           0000008E
ADPSIS                            00000007
ADREF                             0000009A
ADRES                             0000008C
ADRESH                            0000008D
ADRESL                            0000008C
ADRPT                             0000010D
ADRPT0                            00000000
ADRPT1                            00000001
ADRPT2                            00000002
ADRPT3                            00000003
ADRPT4                            00000004
ADRPT5                            00000005
ADRPT6                            00000006
ADRPT7                            00000007
ADSOI                             00000003
ADSTAT                            00000097
ADSTAT0                           00000000
ADSTAT1                           00000001
ADSTAT2                           00000002
ADSTPT                            00000112
ADSTPT0                           00000000
ADSTPT1                           00000001
ADSTPT10                          00000002
ADSTPT11                          00000003
ADSTPT12                          00000004
ADSTPT13                          00000005
ADSTPT14                          00000006
ADSTPT15                          00000007
ADSTPT2                           00000002
ADSTPT3                           00000003
ADSTPT4                           00000004
ADSTPT5                           00000005
ADSTPT6                           00000006
ADSTPT7                           00000007
ADSTPT8                           00000000
ADSTPT9                           00000001
ADSTPTH                           00000113
ADSTPTL                           00000112
ADTIE                             00000001
ADTIF                             00000001
ADTMD0                            00000000
ADTMD1                            00000001
MPASM 5.73              TESTZ209HARDWARE.ASM   5-2-2018  7:49:22         PAGE 11


SYMBOL TABLE
  LABEL                             VALUE 

ADTMD2                            00000002
ADUTH                             00000110
ADUTH0                            00000000
ADUTH1                            00000001
ADUTH10                           00000002
ADUTH11                           00000003
ADUTH12                           00000004
ADUTH13                           00000005
ADUTH14                           00000006
ADUTH15                           00000007
ADUTH2                            00000002
ADUTH3                            00000003
ADUTH4                            00000004
ADUTH5                            00000005
ADUTH6                            00000006
ADUTH7                            00000007
ADUTH8                            00000000
ADUTH9                            00000001
ADUTHH                            00000111
ADUTHL                            00000110
ADUTHR                            00000006
AHEN                              00000001
ANSA0                             00000000
ANSA1                             00000001
ANSA2                             00000002
ANSA3                             00000003
ANSA4                             00000004
ANSA5                             00000005
ANSA6                             00000006
ANSA7                             00000007
ANSB0                             00000000
ANSB1                             00000001
ANSB2                             00000002
ANSB3                             00000003
ANSB4                             00000004
ANSB5                             00000005
ANSB6                             00000006
ANSB7                             00000007
ANSC0                             00000000
ANSC1                             00000001
ANSC2                             00000002
ANSC3                             00000003
ANSC4                             00000004
ANSC5                             00000005
ANSC6                             00000006
ANSC7                             00000007
ANSELA                            00000F38
ANSELB                            00000F43
ANSELC                            00000F4E
AS                                00000000
AS0E                              00000000
AS1E                              00000001
AS2E                              00000002
MPASM 5.73              TESTZ209HARDWARE.ASM   5-2-2018  7:49:22         PAGE 12


SYMBOL TABLE
  LABEL                             VALUE 

AS3E                              00000003
AS4E                              00000004
AS5E                              00000005
AS6E                              00000006
BAUD1CON                          0000011F
BAUDCON                           0000011F
BAUDCON1                          0000011F
BAUDCTL                           0000011F
BAUDCTL1                          0000011F
BCL1IE                            00000001
BCL1IF                            00000001
BCL2IE                            00000003
BCL2IF                            00000003
BF                                00000000
BOEN                              00000004
BORCON                            00000811
BORRDY                            00000000
BORROW                            STATUS,C
BRG16                             00000003
BRGH                              00000002
BSR                               00000008
BSR0                              00000000
BSR1                              00000001
BSR2                              00000002
BSR3                              00000003
BSR4                              00000004
BSR_SHAD                          00000FE6
BUSY                              00000005
C                                 00000000
C1HYS                             00000001
C1IE                              00000000
C1IF                              00000000
C1INTN                            00000000
C1INTP                            00000001
C1NCH0                            00000000
C1NCH1                            00000001
C1NCH2                            00000002
C1ON                              00000007
C1OUT_CM1CON0                     00000006
C1OUT_CMOUT                       00000000
C1OUT_CMSTAT                      00000000
C1PCH0                            00000000
C1PCH1                            00000001
C1PCH2                            00000002
C1POL                             00000004
C1SP                              00000002
C1SYNC                            00000000
C1TSEL0                           00000000
C1TSEL1                           00000001
C2HYS                             00000001
C2IE                              00000001
C2IF                              00000001
C2INTN                            00000000
MPASM 5.73              TESTZ209HARDWARE.ASM   5-2-2018  7:49:22         PAGE 13


SYMBOL TABLE
  LABEL                             VALUE 

C2INTP                            00000001
C2NCH0                            00000000
C2NCH1                            00000001
C2NCH2                            00000002
C2ON                              00000007
C2OUT_CM2CON0                     00000006
C2OUT_CMOUT                       00000001
C2OUT_CMSTAT                      00000001
C2PCH0                            00000000
C2PCH1                            00000001
C2PCH2                            00000002
C2POL                             00000004
C2SP                              00000002
C2SYNC                            00000000
C2TSEL0                           00000002
C2TSEL1                           00000003
C3TSEL0                           00000004
C3TSEL1                           00000005
C4TSEL0                           00000006
C4TSEL1                           00000007
C5TSEL0                           00000000
C5TSEL1                           00000001
CARRY                             STATUS,C
CCDCON                            00000814
CCDEN                             00000007
CCDNA                             00000F40
CCDNA0                            00000000
CCDNA1                            00000001
CCDNA2                            00000002
CCDNA3                            00000003
CCDNA4                            00000004
CCDNA5                            00000005
CCDNA6                            00000006
CCDNA7                            00000007
CCDNB                             00000F4B
CCDNB0                            00000000
CCDNB1                            00000001
CCDNB2                            00000002
CCDNB3                            00000003
CCDNB4                            00000004
CCDNB5                            00000005
CCDNB6                            00000006
CCDNB7                            00000007
CCDNC                             00000F56
CCDNC0                            00000000
CCDNC1                            00000001
CCDNC2                            00000002
CCDNC3                            00000003
CCDNC4                            00000004
CCDNC5                            00000005
CCDNC6                            00000006
CCDNC7                            00000007
CCDPA                             00000F41
MPASM 5.73              TESTZ209HARDWARE.ASM   5-2-2018  7:49:22         PAGE 14


SYMBOL TABLE
  LABEL                             VALUE 

CCDPA0                            00000000
CCDPA1                            00000001
CCDPA2                            00000002
CCDPA3                            00000003
CCDPA4                            00000004
CCDPA5                            00000005
CCDPA6                            00000006
CCDPA7                            00000007
CCDPB                             00000F4C
CCDPB0                            00000000
CCDPB1                            00000001
CCDPB2                            00000002
CCDPB3                            00000003
CCDPB4                            00000004
CCDPB5                            00000005
CCDPB6                            00000006
CCDPB7                            00000007
CCDPC                             00000F57
CCDPC0                            00000000
CCDPC1                            00000001
CCDPC2                            00000002
CCDPC3                            00000003
CCDPC4                            00000004
CCDPC5                            00000005
CCDPC6                            00000006
CCDPC7                            00000007
CCDS0                             00000000
CCDS1                             00000001
CCP1CAP                           0000030F
CCP1CON                           0000030E
CCP1CTS0                          00000000
CCP1CTS1                          00000001
CCP1CTS2                          00000002
CCP1EN                            00000007
CCP1FMT                           00000004
CCP1IE                            00000000
CCP1IF                            00000000
CCP1MD                            00000000
CCP1MODE0                         00000000
CCP1MODE1                         00000001
CCP1MODE2                         00000002
CCP1MODE3                         00000003
CCP1OE                            00000006
CCP1OUT                           00000005
CCP1PPS                           00000EA1
CCP1PPS0                          00000000
CCP1PPS1                          00000001
CCP1PPS2                          00000002
CCP1PPS3                          00000003
CCP1PPS4                          00000004
CCP2CAP                           00000313
CCP2CON                           00000312
CCP2CTS0                          00000000
MPASM 5.73              TESTZ209HARDWARE.ASM   5-2-2018  7:49:22         PAGE 15


SYMBOL TABLE
  LABEL                             VALUE 

CCP2CTS1                          00000001
CCP2CTS2                          00000002
CCP2EN                            00000007
CCP2FMT                           00000004
CCP2IE                            00000001
CCP2IF                            00000001
CCP2MD                            00000001
CCP2MODE0                         00000000
CCP2MODE1                         00000001
CCP2MODE2                         00000002
CCP2MODE3                         00000003
CCP2OE                            00000006
CCP2OUT                           00000005
CCP2PPS                           00000EA2
CCP2PPS0                          00000000
CCP2PPS1                          00000001
CCP2PPS2                          00000002
CCP2PPS3                          00000003
CCP2PPS4                          00000004
CCP3CAP                           00000317
CCP3CON                           00000316
CCP3CTS0                          00000000
CCP3CTS1                          00000001
CCP3CTS2                          00000002
CCP3EN                            00000007
CCP3FMT                           00000004
CCP3IE                            00000002
CCP3IF                            00000002
CCP3MD                            00000002
CCP3MODE0                         00000000
CCP3MODE1                         00000001
CCP3MODE2                         00000002
CCP3MODE3                         00000003
CCP3OE                            00000006
CCP3OUT                           00000005
CCP3PPS                           00000EA3
CCP3PPS0                          00000000
CCP3PPS1                          00000001
CCP3PPS2                          00000002
CCP3PPS3                          00000003
CCP3PPS4                          00000004
CCP4CAP                           0000031B
CCP4CON                           0000031A
CCP4CTS0                          00000000
CCP4CTS1                          00000001
CCP4CTS2                          00000002
CCP4EN                            00000007
CCP4FMT                           00000004
CCP4IE                            00000003
CCP4IF                            00000003
CCP4MD                            00000003
CCP4MODE0                         00000000
CCP4MODE1                         00000001
MPASM 5.73              TESTZ209HARDWARE.ASM   5-2-2018  7:49:22         PAGE 16


SYMBOL TABLE
  LABEL                             VALUE 

CCP4MODE2                         00000002
CCP4MODE3                         00000003
CCP4OE                            00000006
CCP4OUT                           00000005
CCP4PPS                           00000EA4
CCP4PPS0                          00000000
CCP4PPS1                          00000001
CCP4PPS2                          00000002
CCP4PPS3                          00000003
CCP4PPS4                          00000004
CCP5CAP                           0000031F
CCP5CON                           0000031E
CCP5CTS0                          00000000
CCP5CTS1                          00000001
CCP5CTS2                          00000002
CCP5EN                            00000007
CCP5FMT                           00000004
CCP5IE                            00000004
CCP5IF                            00000004
CCP5MD                            00000004
CCP5MODE0                         00000000
CCP5MODE1                         00000001
CCP5MODE2                         00000002
CCP5MODE3                         00000003
CCP5OE                            00000006
CCP5OUT                           00000005
CCP5PPS                           00000EA5
CCP5PPS0                          00000000
CCP5PPS1                          00000001
CCP5PPS2                          00000002
CCP5PPS3                          00000003
CCP5PPS4                          00000004
CCPR1                             0000030C
CCPR1H                            0000030D
CCPR1L                            0000030C
CCPR2                             00000310
CCPR2H                            00000311
CCPR2L                            00000310
CCPR3                             00000314
CCPR3H                            00000315
CCPR3L                            00000314
CCPR4                             00000318
CCPR4H                            00000319
CCPR4L                            00000318
CCPR5                             0000031C
CCPR5H                            0000031D
CCPR5L                            0000031C
CCPTMRS0                          0000021E
CCPTMRS1                          0000021F
CDAFVR0                           00000002
CDAFVR1                           00000003
CDIV0                             00000000
CDIV1                             00000001
MPASM 5.73              TESTZ209HARDWARE.ASM   5-2-2018  7:49:22         PAGE 17


SYMBOL TABLE
  LABEL                             VALUE 

CDIV2                             00000002
CDIV3                             00000003
CKE                               00000006
CKP                               00000004
CKPOL                             00000006
CKPS0                             00000004
CKPS1                             00000005
CKPS2                             00000006
CKSYNC                            00000005
CLC1CON                           00000E10
CLC1GLS0                          00000E16
CLC1GLS1                          00000E17
CLC1GLS2                          00000E18
CLC1GLS3                          00000E19
CLC1IE                            00000004
CLC1IF                            00000004
CLC1MD                            00000001
CLC1POL                           00000E11
CLC1SEL0                          00000E12
CLC1SEL1                          00000E13
CLC1SEL2                          00000E14
CLC1SEL3                          00000E15
CLC2CON                           00000E1A
CLC2GLS0                          00000E20
CLC2GLS1                          00000E21
CLC2GLS2                          00000E22
CLC2GLS3                          00000E23
CLC2IE                            00000005
CLC2IF                            00000005
CLC2MD                            00000002
CLC2POL                           00000E1B
CLC2SEL0                          00000E1C
CLC2SEL1                          00000E1D
CLC2SEL2                          00000E1E
CLC2SEL3                          00000E1F
CLC3CON                           00000E24
CLC3GLS0                          00000E2A
CLC3GLS1                          00000E2B
CLC3GLS2                          00000E2C
CLC3GLS3                          00000E2D
CLC3IE                            00000006
CLC3IF                            00000006
CLC3MD                            00000003
CLC3POL                           00000E25
CLC3SEL0                          00000E26
CLC3SEL1                          00000E27
CLC3SEL2                          00000E28
CLC3SEL3                          00000E29
CLC4CON                           00000E2E
CLC4GLS0                          00000E34
CLC4GLS1                          00000E35
CLC4GLS2                          00000E36
CLC4GLS3                          00000E37
MPASM 5.73              TESTZ209HARDWARE.ASM   5-2-2018  7:49:22         PAGE 18


SYMBOL TABLE
  LABEL                             VALUE 

CLC4IE                            00000007
CLC4IF                            00000007
CLC4MD                            00000004
CLC4POL                           00000E2F
CLC4SEL0                          00000E30
CLC4SEL1                          00000E31
CLC4SEL2                          00000E32
CLC4SEL3                          00000E33
CLCDATA                           00000E0F
CLCIN0PPS                         00000EBB
CLCIN0PPS0                        00000000
CLCIN0PPS1                        00000001
CLCIN0PPS2                        00000002
CLCIN0PPS3                        00000003
CLCIN0PPS4                        00000004
CLCIN1PPS                         00000EBC
CLCIN1PPS0                        00000000
CLCIN1PPS1                        00000001
CLCIN1PPS2                        00000002
CLCIN1PPS3                        00000003
CLCIN1PPS4                        00000004
CLCIN2PPS                         00000EBD
CLCIN2PPS0                        00000000
CLCIN2PPS1                        00000001
CLCIN2PPS2                        00000002
CLCIN2PPS3                        00000003
CLCIN2PPS4                        00000004
CLCIN3PPS                         00000EBE
CLCIN3PPS0                        00000000
CLCIN3PPS1                        00000001
CLCIN3PPS2                        00000002
CLCIN3PPS3                        00000003
CLCIN3PPS4                        00000004
CLKRCLK                           00000896
CLKRCLK0                          00000000
CLKRCLK1                          00000001
CLKRCLK2                          00000002
CLKRCLK3                          00000003
CLKRCON                           00000895
CLKRDC0                           00000003
CLKRDC1                           00000004
CLKRDIV0                          00000000
CLKRDIV1                          00000001
CLKRDIV2                          00000002
CLKREN                            00000007
CLKRMD                            00000001
CM1CON0                           00000990
CM1CON1                           00000991
CM1NSEL                           00000992
CM1PSEL                           00000993
CM2CON0                           00000994
CM2CON1                           00000995
CM2NSEL                           00000996
MPASM 5.73              TESTZ209HARDWARE.ASM   5-2-2018  7:49:22         PAGE 19


SYMBOL TABLE
  LABEL                             VALUE 

CM2PSEL                           00000997
CMOUT                             0000098F
CMP1MD                            00000001
CMP2MD                            00000002
CMSTAT                            0000098F
COSC0                             00000004
COSC1                             00000005
COSC2                             00000006
CPOL                              00000002
CPR0                              00000000
CPR1                              00000001
CPR10                             00000002
CPR11                             00000003
CPR12                             00000004
CPR13                             00000005
CPR14                             00000006
CPR15                             00000007
CPR16                             00000000
CPR17                             00000001
CPR18                             00000002
CPR19                             00000003
CPR2                              00000002
CPR20                             00000004
CPR21                             00000005
CPR22                             00000006
CPR23                             00000007
CPR3                              00000003
CPR4                              00000004
CPR5                              00000005
CPR6                              00000006
CPR7                              00000007
CPR8                              00000000
CPR9                              00000001
CPRUP                             00000007
CPUDOZE                           0000088C
CPW0                              00000000
CPW1                              00000001
CPW10                             00000002
CPW11                             00000003
CPW12                             00000004
CPW13                             00000005
CPW14                             00000006
CPW15                             00000007
CPW16                             00000000
CPW17                             00000001
CPW18                             00000002
CPW19                             00000003
CPW2                              00000002
CPW20                             00000004
CPW21                             00000005
CPW22                             00000006
CPW23                             00000007
CPW3                              00000003
MPASM 5.73              TESTZ209HARDWARE.ASM   5-2-2018  7:49:22         PAGE 20


SYMBOL TABLE
  LABEL                             VALUE 

CPW4                              00000004
CPW5                              00000005
CPW6                              00000006
CPW7                              00000007
CPW8                              00000000
CPW9                              00000001
CPWUP                             00000006
CRCACC                            00000418
CRCACCH                           00000419
CRCACCL                           00000418
CRCCON0                           0000041E
CRCCON1                           0000041F
CRCDATA                           00000416
CRCDATH                           00000417
CRCDATL                           00000416
CRCEN                             00000007
CRCGO                             00000006
CRCIE                             00000006
CRCIF                             00000006
CRCMD                             00000004
CRCSHFT                           0000041A
CRCSHIFTH                         0000041B
CRCSHIFTL                         0000041A
CRCXOR                            0000041C
CRCXORH                           0000041D
CRCXORL                           0000041C
CREN                              00000004
CS                                00000000
CS0                               00000000
CS1                               00000001
CS2                               00000002
CS3                               00000003
CSEL0                             00000000
CSEL1                             00000001
CSEL2                             00000002
CSRC                              00000007
CSWHOLD                           00000007
CSWIE                             00000006
CSWIF                             00000006
CTS0                              00000000
CTS1                              00000001
CTS2                              00000002
CWG1AS0                           00000612
CWG1AS1                           00000613
CWG1CLKCON                        0000060C
CWG1CON0                          00000610
CWG1CON1                          00000611
CWG1CS                            00000000
CWG1DBF                           0000060F
CWG1DBF0                          00000000
CWG1DBF1                          00000001
CWG1DBF2                          00000002
CWG1DBF3                          00000003
MPASM 5.73              TESTZ209HARDWARE.ASM   5-2-2018  7:49:22         PAGE 21


SYMBOL TABLE
  LABEL                             VALUE 

CWG1DBF4                          00000004
CWG1DBF5                          00000005
CWG1DBR                           0000060E
CWG1DBR0                          00000000
CWG1DBR1                          00000001
CWG1DBR2                          00000002
CWG1DBR3                          00000003
CWG1DBR4                          00000004
CWG1DBR5                          00000005
CWG1EN                            00000007
CWG1IE                            00000000
CWG1IF                            00000000
CWG1IN                            00000005
CWG1ISM                           0000060D
CWG1ISM0                          00000000
CWG1ISM1                          00000001
CWG1ISM2                          00000002
CWG1ISM3                          00000003
CWG1LD                            00000006
CWG1LSAC0                         00000002
CWG1LSAC1                         00000003
CWG1LSBD0                         00000004
CWG1LSBD1                         00000005
CWG1MD                            00000000
CWG1MODE0                         00000000
CWG1MODE1                         00000001
CWG1MODE2                         00000002
CWG1OVRA                          00000004
CWG1OVRB                          00000005
CWG1OVRC                          00000006
CWG1OVRD                          00000007
CWG1POLA                          00000000
CWG1POLB                          00000001
CWG1POLC                          00000002
CWG1POLD                          00000003
CWG1PPS                           00000EB1
CWG1PPS0                          00000000
CWG1PPS1                          00000001
CWG1PPS2                          00000002
CWG1PPS3                          00000003
CWG1PPS4                          00000004
CWG1REN                           00000006
CWG1SHUTDOWN                      00000007
CWG1STR                           00000614
CWG1STRA                          00000000
CWG1STRB                          00000001
CWG1STRC                          00000002
CWG1STRD                          00000003
CWG2AS0                           0000061C
CWG2AS1                           0000061D
CWG2CLKCON                        00000616
CWG2CON0                          0000061A
CWG2CON1                          0000061B
MPASM 5.73              TESTZ209HARDWARE.ASM   5-2-2018  7:49:22         PAGE 22


SYMBOL TABLE
  LABEL                             VALUE 

CWG2CS                            00000000
CWG2DBF                           00000619
CWG2DBF0                          00000000
CWG2DBF1                          00000001
CWG2DBF2                          00000002
CWG2DBF3                          00000003
CWG2DBF4                          00000004
CWG2DBF5                          00000005
CWG2DBR                           00000618
CWG2DBR0                          00000000
CWG2DBR1                          00000001
CWG2DBR2                          00000002
CWG2DBR3                          00000003
CWG2DBR4                          00000004
CWG2DBR5                          00000005
CWG2EN                            00000007
CWG2IE                            00000001
CWG2IF                            00000001
CWG2IN                            00000005
CWG2ISM                           00000617
CWG2ISM0                          00000000
CWG2ISM1                          00000001
CWG2ISM2                          00000002
CWG2ISM3                          00000003
CWG2LD                            00000006
CWG2LSAC0                         00000002
CWG2LSAC1                         00000003
CWG2LSBD0                         00000004
CWG2LSBD1                         00000005
CWG2MD                            00000001
CWG2MODE0                         00000000
CWG2MODE1                         00000001
CWG2MODE2                         00000002
CWG2OVRA                          00000004
CWG2OVRB                          00000005
CWG2OVRC                          00000006
CWG2OVRD                          00000007
CWG2POLA                          00000000
CWG2POLB                          00000001
CWG2POLC                          00000002
CWG2POLD                          00000003
CWG2PPS                           00000EB2
CWG2PPS0                          00000000
CWG2PPS1                          00000001
CWG2PPS2                          00000002
CWG2PPS3                          00000003
CWG2PPS4                          00000004
CWG2REN                           00000006
CWG2SHUTDOWN                      00000007
CWG2STR                           0000061E
CWG2STRA                          00000000
CWG2STRB                          00000001
CWG2STRC                          00000002
MPASM 5.73              TESTZ209HARDWARE.ASM   5-2-2018  7:49:22         PAGE 23


SYMBOL TABLE
  LABEL                             VALUE 

CWG2STRD                          00000003
CWG3AS0                           00000692
CWG3AS1                           00000693
CWG3CLKCON                        0000068C
CWG3CON0                          00000690
CWG3CON1                          00000691
CWG3CS                            00000000
CWG3DBF                           0000068F
CWG3DBF0                          00000000
CWG3DBF1                          00000001
CWG3DBF2                          00000002
CWG3DBF3                          00000003
CWG3DBF4                          00000004
CWG3DBF5                          00000005
CWG3DBR                           0000068E
CWG3DBR0                          00000000
CWG3DBR1                          00000001
CWG3DBR2                          00000002
CWG3DBR3                          00000003
CWG3DBR4                          00000004
CWG3DBR5                          00000005
CWG3EN                            00000007
CWG3IE                            00000002
CWG3IF                            00000002
CWG3IN                            00000005
CWG3ISM                           0000068D
CWG3ISM0                          00000000
CWG3ISM1                          00000001
CWG3ISM2                          00000002
CWG3ISM3                          00000003
CWG3LD                            00000006
CWG3LSAC0                         00000002
CWG3LSAC1                         00000003
CWG3LSBD0                         00000004
CWG3LSBD1                         00000005
CWG3MD                            00000002
CWG3MODE0                         00000000
CWG3MODE1                         00000001
CWG3MODE2                         00000002
CWG3OVRA                          00000004
CWG3OVRB                          00000005
CWG3OVRC                          00000006
CWG3OVRD                          00000007
CWG3POLA                          00000000
CWG3POLB                          00000001
CWG3POLC                          00000002
CWG3POLD                          00000003
CWG3PPS                           00000EB3
CWG3PPS0                          00000000
CWG3PPS1                          00000001
CWG3PPS2                          00000002
CWG3PPS3                          00000003
CWG3PPS4                          00000004
MPASM 5.73              TESTZ209HARDWARE.ASM   5-2-2018  7:49:22         PAGE 24


SYMBOL TABLE
  LABEL                             VALUE 

CWG3REN                           00000006
CWG3SHUTDOWN                      00000007
CWG3STR                           00000694
CWG3STRA                          00000000
CWG3STRB                          00000001
CWG3STRC                          00000002
CWG3STRD                          00000003
C_SHAD                            00000000
D1N                               00000000
D1S0                              00000000
D1S1                              00000001
D1S2                              00000002
D1S3                              00000003
D1S4                              00000004
D1S5                              00000005
D1S6                              00000006
D1S7                              00000007
D1T                               00000001
D2N                               00000002
D2S0                              00000000
D2S1                              00000001
D2S2                              00000002
D2S3                              00000003
D2S4                              00000004
D2S5                              00000005
D2S6                              00000006
D2S7                              00000007
D2T                               00000003
D3N                               00000004
D3S0                              00000000
D3S1                              00000001
D3S2                              00000002
D3S3                              00000003
D3S4                              00000004
D3S5                              00000005
D3S6                              00000006
D3S7                              00000007
D3T                               00000005
D4N                               00000006
D4S0                              00000000
D4S1                              00000001
D4S2                              00000002
D4S3                              00000003
D4S4                              00000004
D4S5                              00000005
D4S6                              00000006
D4S7                              00000007
D4T                               00000007
DABORT                            00000004
DAC0                              0x00
DAC1                              0x01
DAC1CON0                          0000090E
DAC1CON1                          0000090F
MPASM 5.73              TESTZ209HARDWARE.ASM   5-2-2018  7:49:22         PAGE 25


SYMBOL TABLE
  LABEL                             VALUE 

DAC1EN                            00000007
DAC1NSS                           00000000
DAC1OE1                           00000005
DAC1OE2                           00000004
DAC1PSS0                          00000002
DAC1PSS1                          00000003
DAC1R0                            00000000
DAC1R1                            00000001
DAC1R2                            00000002
DAC1R3                            00000003
DAC1R4                            00000004
DACMD                             00000006
DATA0                             00000000
DATA1                             00000001
DATA10                            00000002
DATA11                            00000003
DATA12                            00000004
DATA13                            00000005
DATA14                            00000006
DATA15                            00000007
DATA2                             00000002
DATA3                             00000003
DATA4                             00000004
DATA5                             00000005
DATA6                             00000006
DATA7                             00000007
DATA8                             00000000
DATA9                             00000001
DATA_ADDRESS                      00000005
DBF0                              00000000
DBF1                              00000001
DBF2                              00000002
DBF3                              00000003
DBF4                              00000004
DBF5                              00000005
DBR0                              00000000
DBR1                              00000001
DBR2                              00000002
DBR3                              00000003
DBR4                              00000004
DBR5                              00000005
DC                                00000001
DC0                               00000006
DC1                               00000007
DC2                               00000000
DC3                               00000001
DC4                               00000002
DC5                               00000003
DC6                               00000004
DC7                               00000005
DC8                               00000006
DC9                               00000007
DC_SHAD                           00000001
MPASM 5.73              TESTZ209HARDWARE.ASM   5-2-2018  7:49:22         PAGE 26


SYMBOL TABLE
  LABEL                             VALUE 

DHEN                              00000000
DLEN0                             00000004
DLEN1                             00000005
DLEN2                             00000006
DLEN3                             00000007
DOE                               00000004
DONE                              00000000
DOZE0                             00000000
DOZE1                             00000001
DOZE2                             00000002
DOZEN                             00000006
DSMMD                             00000000
D_A                               00000005
D_NOT_A                           00000005
Delay25us                         0000003B
Delay_0                           0000003D
EN                                00000007
EXTOEN                            00000007
EXTOR                             00000007
F                                 00000001
FERR                              00000002
FMT                               00000004
FREE                              00000004
FSR0                              00000004
FSR0H                             00000005
FSR0H_SHAD                        00000FE9
FSR0L                             00000004
FSR0L_SHAD                        00000FE8
FSR1                              00000006
FSR1H                             00000007
FSR1H_SHAD                        00000FEB
FSR1L                             00000006
FSR1L_SHAD                        00000FEA
FULL                              00000000
FVRCON                            0000090C
FVREN                             00000007
FVRMD                             00000006
FVRRDY                            00000006
G1EN                              00000007
G1POL                             00000000
G2EN                              00000007
G2POL                             00000001
G3EN                              00000007
G3POL                             00000002
G4D1N                             00000000
G4D1T                             00000001
G4D2N                             00000002
G4D2T                             00000003
G4D3N                             00000004
G4D3T                             00000005
G4D4N                             00000006
G4D4T                             00000007
G4POL                             00000003
MPASM 5.73              TESTZ209HARDWARE.ASM   5-2-2018  7:49:22         PAGE 27


SYMBOL TABLE
  LABEL                             VALUE 

GCEN                              00000007
GE                                00000007
GGO_NOT_DONE                      00000003
GIE                               00000007
GO_ADCON0                         00000000
GO_NOT_DONE                       00000000
GO_SMT1CON1                       00000007
GO_SMT2CON1                       00000007
GPOL                              00000006
GSPM                              00000004
GSS0                              00000000
GSS1                              00000001
GSS2                              00000002
GSS3                              00000003
GSS4                              00000004
GTM                               00000005
GVAL                              00000002
HADR0                             00000000
HADR1                             00000001
HADR10                            00000002
HADR11                            00000003
HADR12                            00000004
HADR13                            00000005
HADR14                            00000006
HADR15                            00000007
HADR2                             00000002
HADR3                             00000003
HADR4                             00000004
HADR5                             00000005
HADR6                             00000006
HADR7                             00000007
HADR8                             00000000
HADR9                             00000001
HFFRQ0                            00000000
HFFRQ1                            00000001
HFFRQ2                            00000002
HFOEN                             00000006
HFOR                              00000006
HFTUN0                            00000000
HFTUN1                            00000001
HFTUN2                            00000002
HFTUN3                            00000003
HFTUN4                            00000004
HFTUN5                            00000005
HYS                               00000001
I2C_DAT                           00000005
I2C_READ                          00000002
I2C_START                         00000003
I2C_STOP                          00000004
IDLEN                             00000007
IN                                00000005
INDF0                             00000000
INDF1                             00000001
MPASM 5.73              TESTZ209HARDWARE.ASM   5-2-2018  7:49:22         PAGE 28


SYMBOL TABLE
  LABEL                             VALUE 

INLVLA                            00000F3C
INLVLA0                           00000000
INLVLA1                           00000001
INLVLA2                           00000002
INLVLA3                           00000003
INLVLA4                           00000004
INLVLA5                           00000005
INLVLA6                           00000006
INLVLA7                           00000007
INLVLB                            00000F47
INLVLB0                           00000000
INLVLB1                           00000001
INLVLB2                           00000002
INLVLB3                           00000003
INLVLB4                           00000004
INLVLB5                           00000005
INLVLB6                           00000006
INLVLB7                           00000007
INLVLC                            00000F52
INLVLC0                           00000000
INLVLC1                           00000001
INLVLC2                           00000002
INLVLC3                           00000003
INLVLC4                           00000004
INLVLC5                           00000005
INLVLC6                           00000006
INLVLC7                           00000007
INLVLE                            00000F68
INLVLE3                           00000003
INTCON                            0000000B
INTE                              00000000
INTEDG                            00000000
INTF                              00000000
INTM                              00000003
INTN_CLC1CON                      00000003
INTN_CLC2CON                      00000003
INTN_CLC3CON                      00000003
INTN_CLC4CON                      00000003
INTN_CM1CON1                      00000000
INTN_CM2CON1                      00000000
INTN_ZCD1CON                      00000000
INTN_ZCDCON                       00000000
INTPPS                            00000E90
INTPPS0                           00000000
INTPPS1                           00000001
INTPPS2                           00000002
INTPPS3                           00000003
INTP_CLC1CON                      00000004
INTP_CLC2CON                      00000004
INTP_CLC3CON                      00000004
INTP_CLC4CON                      00000004
INTP_CM1CON1                      00000001
INTP_CM2CON1                      00000001
MPASM 5.73              TESTZ209HARDWARE.ASM   5-2-2018  7:49:22         PAGE 29


SYMBOL TABLE
  LABEL                             VALUE 

INTP_ZCD1CON                      00000001
INTP_ZCDCON                       00000001
INVALID                           00000004
IOCAF                             00000F3F
IOCAF0                            00000000
IOCAF1                            00000001
IOCAF2                            00000002
IOCAF3                            00000003
IOCAF4                            00000004
IOCAF5                            00000005
IOCAF6                            00000006
IOCAF7                            00000007
IOCAN                             00000F3E
IOCAN0                            00000000
IOCAN1                            00000001
IOCAN2                            00000002
IOCAN3                            00000003
IOCAN4                            00000004
IOCAN5                            00000005
IOCAN6                            00000006
IOCAN7                            00000007
IOCAP                             00000F3D
IOCAP0                            00000000
IOCAP1                            00000001
IOCAP2                            00000002
IOCAP3                            00000003
IOCAP4                            00000004
IOCAP5                            00000005
IOCAP6                            00000006
IOCAP7                            00000007
IOCBF                             00000F4A
IOCBF0                            00000000
IOCBF1                            00000001
IOCBF2                            00000002
IOCBF3                            00000003
IOCBF4                            00000004
IOCBF5                            00000005
IOCBF6                            00000006
IOCBF7                            00000007
IOCBN                             00000F49
IOCBN0                            00000000
IOCBN1                            00000001
IOCBN2                            00000002
IOCBN3                            00000003
IOCBN4                            00000004
IOCBN5                            00000005
IOCBN6                            00000006
IOCBN7                            00000007
IOCBP                             00000F48
IOCBP0                            00000000
IOCBP1                            00000001
IOCBP2                            00000002
IOCBP3                            00000003
MPASM 5.73              TESTZ209HARDWARE.ASM   5-2-2018  7:49:22         PAGE 30


SYMBOL TABLE
  LABEL                             VALUE 

IOCBP4                            00000004
IOCBP5                            00000005
IOCBP6                            00000006
IOCBP7                            00000007
IOCCF                             00000F55
IOCCF0                            00000000
IOCCF1                            00000001
IOCCF2                            00000002
IOCCF3                            00000003
IOCCF4                            00000004
IOCCF5                            00000005
IOCCF6                            00000006
IOCCF7                            00000007
IOCCN                             00000F54
IOCCN0                            00000000
IOCCN1                            00000001
IOCCN2                            00000002
IOCCN3                            00000003
IOCCN4                            00000004
IOCCN5                            00000005
IOCCN6                            00000006
IOCCN7                            00000007
IOCCP                             00000F53
IOCCP0                            00000000
IOCCP1                            00000001
IOCCP2                            00000002
IOCCP3                            00000003
IOCCP4                            00000004
IOCCP5                            00000005
IOCCP6                            00000006
IOCCP7                            00000007
IOCEF                             00000F6B
IOCEF3                            00000003
IOCEN                             00000F6A
IOCEN3                            00000003
IOCEP                             00000F69
IOCEP3                            00000003
IOCIE                             00000004
IOCIF                             00000004
IOCMD                             00000000
IncrementDone                     00000009
Init_Ports                        0000001D
Is_Off                            00000019
Is_On                             0000001B
LADR0                             00000000
LADR1                             00000001
LADR10                            00000002
LADR11                            00000003
LADR12                            00000004
LADR13                            00000005
LADR14                            00000006
LADR15                            00000007
LADR2                             00000002
MPASM 5.73              TESTZ209HARDWARE.ASM   5-2-2018  7:49:22         PAGE 31


SYMBOL TABLE
  LABEL                             VALUE 

LADR3                             00000003
LADR4                             00000004
LADR5                             00000005
LADR6                             00000006
LADR7                             00000007
LADR8                             00000000
LADR9                             00000001
LATA                              00000016
LATA0                             00000000
LATA1                             00000001
LATA2                             00000002
LATA3                             00000003
LATA4                             00000004
LATA5                             00000005
LATA6                             00000006
LATA7                             00000007
LATB                              00000017
LATB0                             00000000
LATB1                             00000001
LATB2                             00000002
LATB3                             00000003
LATB4                             00000004
LATB5                             00000005
LATB6                             00000006
LATB7                             00000007
LATC                              00000018
LATC0                             00000000
LATC1                             00000001
LATC2                             00000002
LATC3                             00000003
LATC4                             00000004
LATC5                             00000005
LATC6                             00000006
LATC7                             00000007
LC1D1S0                           00000000
LC1D1S1                           00000001
LC1D1S2                           00000002
LC1D1S3                           00000003
LC1D1S4                           00000004
LC1D1S5                           00000005
LC1D1S6                           00000006
LC1D1S7                           00000007
LC1D2S0                           00000000
LC1D2S1                           00000001
LC1D2S2                           00000002
LC1D2S3                           00000003
LC1D2S4                           00000004
LC1D2S5                           00000005
LC1D2S6                           00000006
LC1D2S7                           00000007
LC1D3S0                           00000000
LC1D3S1                           00000001
LC1D3S2                           00000002
MPASM 5.73              TESTZ209HARDWARE.ASM   5-2-2018  7:49:22         PAGE 32


SYMBOL TABLE
  LABEL                             VALUE 

LC1D3S3                           00000003
LC1D3S4                           00000004
LC1D3S5                           00000005
LC1D3S6                           00000006
LC1D3S7                           00000007
LC1D4S0                           00000000
LC1D4S1                           00000001
LC1D4S2                           00000002
LC1D4S3                           00000003
LC1D4S4                           00000004
LC1D4S5                           00000005
LC1D4S6                           00000006
LC1D4S7                           00000007
LC1EN                             00000007
LC1G1D1N                          00000000
LC1G1D1T                          00000001
LC1G1D2N                          00000002
LC1G1D2T                          00000003
LC1G1D3N                          00000004
LC1G1D3T                          00000005
LC1G1D4N                          00000006
LC1G1D4T                          00000007
LC1G1POL                          00000000
LC1G2D1N                          00000000
LC1G2D1T                          00000001
LC1G2D2N                          00000002
LC1G2D2T                          00000003
LC1G2D3N                          00000004
LC1G2D3T                          00000005
LC1G2D4N                          00000006
LC1G2D4T                          00000007
LC1G2POL                          00000001
LC1G3D1N                          00000000
LC1G3D1T                          00000001
LC1G3D2N                          00000002
LC1G3D2T                          00000003
LC1G3D3N                          00000004
LC1G3D3T                          00000005
LC1G3D4N                          00000006
LC1G3D4T                          00000007
LC1G3POL                          00000002
LC1G4D1N                          00000000
LC1G4D1T                          00000001
LC1G4D2N                          00000002
LC1G4D2T                          00000003
LC1G4D3N                          00000004
LC1G4D3T                          00000005
LC1G4D4N                          00000006
LC1G4D4T                          00000007
LC1G4POL                          00000003
LC1INTN                           00000003
LC1INTP                           00000004
LC1MODE0                          00000000
MPASM 5.73              TESTZ209HARDWARE.ASM   5-2-2018  7:49:22         PAGE 33


SYMBOL TABLE
  LABEL                             VALUE 

LC1MODE1                          00000001
LC1MODE2                          00000002
LC1OUT                            00000005
LC1POL                            00000007
LC2D1S0                           00000000
LC2D1S1                           00000001
LC2D1S2                           00000002
LC2D1S3                           00000003
LC2D1S4                           00000004
LC2D1S5                           00000005
LC2D1S6                           00000006
LC2D1S7                           00000007
LC2D2S0                           00000000
LC2D2S1                           00000001
LC2D2S2                           00000002
LC2D2S3                           00000003
LC2D2S4                           00000004
LC2D2S5                           00000005
LC2D2S6                           00000006
LC2D2S7                           00000007
LC2D3S0                           00000000
LC2D3S1                           00000001
LC2D3S2                           00000002
LC2D3S3                           00000003
LC2D3S4                           00000004
LC2D3S5                           00000005
LC2D3S6                           00000006
LC2D3S7                           00000007
LC2D4S0                           00000000
LC2D4S1                           00000001
LC2D4S2                           00000002
LC2D4S3                           00000003
LC2D4S4                           00000004
LC2D4S5                           00000005
LC2D4S6                           00000006
LC2D4S7                           00000007
LC2EN                             00000007
LC2G1D1N                          00000000
LC2G1D1T                          00000001
LC2G1D2N                          00000002
LC2G1D2T                          00000003
LC2G1D3N                          00000004
LC2G1D3T                          00000005
LC2G1D4N                          00000006
LC2G1D4T                          00000007
LC2G1POL                          00000000
LC2G2D1N                          00000000
LC2G2D1T                          00000001
LC2G2D2N                          00000002
LC2G2D2T                          00000003
LC2G2D3N                          00000004
LC2G2D3T                          00000005
LC2G2D4N                          00000006
MPASM 5.73              TESTZ209HARDWARE.ASM   5-2-2018  7:49:22         PAGE 34


SYMBOL TABLE
  LABEL                             VALUE 

LC2G2D4T                          00000007
LC2G2POL                          00000001
LC2G3D1N                          00000000
LC2G3D1T                          00000001
LC2G3D2N                          00000002
LC2G3D2T                          00000003
LC2G3D3N                          00000004
LC2G3D3T                          00000005
LC2G3D4N                          00000006
LC2G3D4T                          00000007
LC2G3POL                          00000002
LC2G4D1N                          00000000
LC2G4D1T                          00000001
LC2G4D2N                          00000002
LC2G4D2T                          00000003
LC2G4D3N                          00000004
LC2G4D3T                          00000005
LC2G4D4N                          00000006
LC2G4D4T                          00000007
LC2G4POL                          00000003
LC2INTN                           00000003
LC2INTP                           00000004
LC2MODE0                          00000000
LC2MODE1                          00000001
LC2MODE2                          00000002
LC2OUT                            00000005
LC2POL                            00000007
LC3D1S0                           00000000
LC3D1S1                           00000001
LC3D1S2                           00000002
LC3D1S3                           00000003
LC3D1S4                           00000004
LC3D1S5                           00000005
LC3D1S6                           00000006
LC3D1S7                           00000007
LC3D2S0                           00000000
LC3D2S1                           00000001
LC3D2S2                           00000002
LC3D2S3                           00000003
LC3D2S4                           00000004
LC3D2S5                           00000005
LC3D2S6                           00000006
LC3D2S7                           00000007
LC3D3S0                           00000000
LC3D3S1                           00000001
LC3D3S2                           00000002
LC3D3S3                           00000003
LC3D3S4                           00000004
LC3D3S5                           00000005
LC3D3S6                           00000006
LC3D3S7                           00000007
LC3D4S0                           00000000
LC3D4S1                           00000001
MPASM 5.73              TESTZ209HARDWARE.ASM   5-2-2018  7:49:22         PAGE 35


SYMBOL TABLE
  LABEL                             VALUE 

LC3D4S2                           00000002
LC3D4S3                           00000003
LC3D4S4                           00000004
LC3D4S5                           00000005
LC3D4S6                           00000006
LC3D4S7                           00000007
LC3EN                             00000007
LC3G1D1N                          00000000
LC3G1D1T                          00000001
LC3G1D2N                          00000002
LC3G1D2T                          00000003
LC3G1D3N                          00000004
LC3G1D3T                          00000005
LC3G1D4N                          00000006
LC3G1D4T                          00000007
LC3G1POL                          00000000
LC3G2D1N                          00000000
LC3G2D1T                          00000001
LC3G2D2N                          00000002
LC3G2D2T                          00000003
LC3G2D3N                          00000004
LC3G2D3T                          00000005
LC3G2D4N                          00000006
LC3G2D4T                          00000007
LC3G2POL                          00000001
LC3G3D1N                          00000000
LC3G3D1T                          00000001
LC3G3D2N                          00000002
LC3G3D2T                          00000003
LC3G3D3N                          00000004
LC3G3D3T                          00000005
LC3G3D4N                          00000006
LC3G3D4T                          00000007
LC3G3POL                          00000002
LC3G4D1N                          00000000
LC3G4D1T                          00000001
LC3G4D2N                          00000002
LC3G4D2T                          00000003
LC3G4D3N                          00000004
LC3G4D3T                          00000005
LC3G4D4N                          00000006
LC3G4D4T                          00000007
LC3G4POL                          00000003
LC3INTN                           00000003
LC3INTP                           00000004
LC3MODE0                          00000000
LC3MODE1                          00000001
LC3MODE2                          00000002
LC3OUT                            00000005
LC3POL                            00000007
LC4D1S0                           00000000
LC4D1S1                           00000001
LC4D1S2                           00000002
MPASM 5.73              TESTZ209HARDWARE.ASM   5-2-2018  7:49:22         PAGE 36


SYMBOL TABLE
  LABEL                             VALUE 

LC4D1S3                           00000003
LC4D1S4                           00000004
LC4D1S5                           00000005
LC4D1S6                           00000006
LC4D1S7                           00000007
LC4D2S0                           00000000
LC4D2S1                           00000001
LC4D2S2                           00000002
LC4D2S3                           00000003
LC4D2S4                           00000004
LC4D2S5                           00000005
LC4D2S6                           00000006
LC4D2S7                           00000007
LC4D3S0                           00000000
LC4D3S1                           00000001
LC4D3S2                           00000002
LC4D3S3                           00000003
LC4D3S4                           00000004
LC4D3S5                           00000005
LC4D3S6                           00000006
LC4D3S7                           00000007
LC4D4S0                           00000000
LC4D4S1                           00000001
LC4D4S2                           00000002
LC4D4S3                           00000003
LC4D4S4                           00000004
LC4D4S5                           00000005
LC4D4S6                           00000006
LC4D4S7                           00000007
LC4EN                             00000007
LC4G1D1N                          00000000
LC4G1D1T                          00000001
LC4G1D2N                          00000002
LC4G1D2T                          00000003
LC4G1D3N                          00000004
LC4G1D3T                          00000005
LC4G1D4N                          00000006
LC4G1D4T                          00000007
LC4G1POL                          00000000
LC4G2D1N                          00000000
LC4G2D1T                          00000001
LC4G2D2N                          00000002
LC4G2D2T                          00000003
LC4G2D3N                          00000004
LC4G2D3T                          00000005
LC4G2D4N                          00000006
LC4G2D4T                          00000007
LC4G2POL                          00000001
LC4G3D1N                          00000000
LC4G3D1T                          00000001
LC4G3D2N                          00000002
LC4G3D2T                          00000003
LC4G3D3N                          00000004
MPASM 5.73              TESTZ209HARDWARE.ASM   5-2-2018  7:49:22         PAGE 37


SYMBOL TABLE
  LABEL                             VALUE 

LC4G3D3T                          00000005
LC4G3D4N                          00000006
LC4G3D4T                          00000007
LC4G3POL                          00000002
LC4G4D1N                          00000000
LC4G4D1T                          00000001
LC4G4D2N                          00000002
LC4G4D2T                          00000003
LC4G4D3N                          00000004
LC4G4D3T                          00000005
LC4G4D4N                          00000006
LC4G4D4T                          00000007
LC4G4POL                          00000003
LC4INTN                           00000003
LC4INTP                           00000004
LC4MODE0                          00000000
LC4MODE1                          00000001
LC4MODE2                          00000002
LC4OUT                            00000005
LC4POL                            00000007
LD                                00000006
LEDLAST                           0x07
LFOEN                             00000004
LFOR                              00000004
LOOP_COUNTER_1                    00000020
LOOP_COUNTER_2                    00000021
LSAC0                             00000002
LSAC1                             00000003
LSBD0                             00000004
LSBD1                             00000005
LWLO                              00000005
Long_Delay                        00000035
MC1OUT                            00000000
MC2OUT                            00000001
MDBIT                             00000000
MDCARH                            0000089B
MDCARHPPS                         00000EB9
MDCARHPPS0                        00000000
MDCARHPPS1                        00000001
MDCARHPPS2                        00000002
MDCARHPPS3                        00000003
MDCARHPPS4                        00000004
MDCARL                            0000089A
MDCARLPPS                         00000EB8
MDCARLPPS0                        00000000
MDCARLPPS1                        00000001
MDCARLPPS2                        00000002
MDCARLPPS3                        00000003
MDCARLPPS4                        00000004
MDCH0                             00000000
MDCH1                             00000001
MDCH2                             00000002
MDCH3                             00000003
MPASM 5.73              TESTZ209HARDWARE.ASM   5-2-2018  7:49:22         PAGE 38


SYMBOL TABLE
  LABEL                             VALUE 

MDCHPOL                           00000005
MDCHSYNC                          00000004
MDCL0                             00000000
MDCL1                             00000001
MDCL2                             00000002
MDCL3                             00000003
MDCLPOL                           00000001
MDCLSYNC                          00000000
MDCON0                            00000897
MDCON1                            00000898
MDEN                              00000007
MDMS0                             00000000
MDMS1                             00000001
MDMS2                             00000002
MDMS3                             00000003
MDMS4                             00000004
MDOPOL                            00000004
MDOUT                             00000005
MDSRC                             00000899
MDSRCPPS                          00000EBA
MDSRCPPS0                         00000000
MDSRCPPS1                         00000001
MDSRCPPS2                         00000002
MDSRCPPS3                         00000003
MDSRCPPS4                         00000004
MFOEN                             00000005
MFOR                              00000005
MLC1OUT                           00000000
MLC2OUT                           00000001
MLC3OUT                           00000002
MLC4OUT                           00000003
MODE0                             00000000
MODE1                             00000001
MODE2                             00000002
MODE3                             00000003
MODE4                             00000004
MSK0                              00000000
MSK1                              00000001
MSK2                              00000002
MSK3                              00000003
MSK4                              00000004
MSK5                              00000005
MSK6                              00000006
MSK7                              00000007
MSSP1MD                           00000004
MSSP2MD                           00000005
MainLoop                          00000004
N1CKS0                            00000000
N1CKS1                            00000001
N1CKS2                            00000002
N1EN                              00000007
N1OUT                             00000005
N1PFM                             00000000
MPASM 5.73              TESTZ209HARDWARE.ASM   5-2-2018  7:49:22         PAGE 39


SYMBOL TABLE
  LABEL                             VALUE 

N1POL                             00000004
N1PWS0                            00000005
N1PWS1                            00000006
N1PWS2                            00000007
NCH0                              00000000
NCH1                              00000001
NCH2                              00000002
NCO1ACC                           0000058C
NCO1ACC0                          00000000
NCO1ACC1                          00000001
NCO1ACC10                         00000002
NCO1ACC11                         00000003
NCO1ACC12                         00000004
NCO1ACC13                         00000005
NCO1ACC14                         00000006
NCO1ACC15                         00000007
NCO1ACC16                         00000000
NCO1ACC17                         00000001
NCO1ACC18                         00000002
NCO1ACC19                         00000003
NCO1ACC2                          00000002
NCO1ACC3                          00000003
NCO1ACC4                          00000004
NCO1ACC5                          00000005
NCO1ACC6                          00000006
NCO1ACC7                          00000007
NCO1ACC8                          00000000
NCO1ACC9                          00000001
NCO1ACCH                          0000058D
NCO1ACCL                          0000058C
NCO1ACCU                          0000058E
NCO1CLK                           00000593
NCO1CON                           00000592
NCO1IE                            00000004
NCO1IF                            00000004
NCO1INC                           0000058F
NCO1INC0                          00000000
NCO1INC1                          00000001
NCO1INC10                         00000002
NCO1INC11                         00000003
NCO1INC12                         00000004
NCO1INC13                         00000005
NCO1INC14                         00000006
NCO1INC15                         00000007
NCO1INC16                         00000000
NCO1INC17                         00000001
NCO1INC18                         00000002
NCO1INC19                         00000003
NCO1INC2                          00000002
NCO1INC3                          00000003
NCO1INC4                          00000004
NCO1INC5                          00000005
NCO1INC6                          00000006
MPASM 5.73              TESTZ209HARDWARE.ASM   5-2-2018  7:49:22         PAGE 40


SYMBOL TABLE
  LABEL                             VALUE 

NCO1INC7                          00000007
NCO1INC8                          00000000
NCO1INC9                          00000001
NCO1INCH                          00000590
NCO1INCL                          0000058F
NCO1INCU                          00000591
NCO1MD                            00000007
NCOIE                             00000004
NCOIF                             00000004
NCOMD                             00000007
NDIV0                             00000000
NDIV1                             00000001
NDIV2                             00000002
NDIV3                             00000003
NOSC0                             00000004
NOSC1                             00000005
NOSC2                             00000006
NOSCR                             00000003
NOT_A                             00000005
NOT_ADDRESS                       00000005
NOT_BOR                           00000000
NOT_DONE                          00000000
NOT_PD                            00000003
NOT_POR                           00000001
NOT_RI                            00000002
NOT_RMCLR                         00000003
NOT_RWDT                          00000004
NOT_SYNC                          00000002
NOT_T1SYNC                        00000002
NOT_T3SYNC                        00000002
NOT_T5SYNC                        00000002
NOT_TO                            00000004
NOT_W                             00000002
NOT_WDTWV                         00000005
NOT_WRITE                         00000002
NSS                               00000000
NVMADR0                           00000000
NVMADR1                           00000001
NVMADR10                          00000002
NVMADR11                          00000003
NVMADR12                          00000004
NVMADR13                          00000005
NVMADR14                          00000006
NVMADR2                           00000002
NVMADR3                           00000003
NVMADR4                           00000004
NVMADR5                           00000005
NVMADR6                           00000006
NVMADR7                           00000007
NVMADR8                           00000000
NVMADR9                           00000001
NVMADRH                           0000081B
NVMADRL                           0000081A
MPASM 5.73              TESTZ209HARDWARE.ASM   5-2-2018  7:49:22         PAGE 41


SYMBOL TABLE
  LABEL                             VALUE 

NVMCON1                           0000081E
NVMCON2                           0000081F
NVMDAT0                           00000000
NVMDAT1                           00000001
NVMDAT10                          00000002
NVMDAT11                          00000003
NVMDAT12                          00000004
NVMDAT13                          00000005
NVMDAT2                           00000002
NVMDAT3                           00000003
NVMDAT4                           00000004
NVMDAT5                           00000005
NVMDAT6                           00000006
NVMDAT7                           00000007
NVMDAT8                           00000000
NVMDAT9                           00000001
NVMDATH                           0000081D
NVMDATL                           0000081C
NVMIE                             00000005
NVMIF                             00000005
NVMMD                             00000002
NVMREGS                           00000006
ODCA0                             00000000
ODCA1                             00000001
ODCA2                             00000002
ODCA3                             00000003
ODCA4                             00000004
ODCA5                             00000005
ODCA6                             00000006
ODCA7                             00000007
ODCB0                             00000000
ODCB1                             00000001
ODCB2                             00000002
ODCB3                             00000003
ODCB4                             00000004
ODCB5                             00000005
ODCB6                             00000006
ODCB7                             00000007
ODCC0                             00000000
ODCC1                             00000001
ODCC2                             00000002
ODCC3                             00000003
ODCC4                             00000004
ODCC5                             00000005
ODCC6                             00000006
ODCC7                             00000007
ODCONA                            00000F3A
ODCONB                            00000F45
ODCONC                            00000F50
OE                                00000006
OE1                               00000005
OE2                               00000004
OERR                              00000001
MPASM 5.73              TESTZ209HARDWARE.ASM   5-2-2018  7:49:22         PAGE 42


SYMBOL TABLE
  LABEL                             VALUE 

ON_CM1CON0                        00000007
ON_CM2CON0                        00000007
ON_T1CON                          00000000
ON_T2CON                          00000007
ON_T3CON                          00000000
ON_T4CON                          00000007
ON_T5CON                          00000000
ON_T6CON                          00000007
ORDY                              00000004
OSCCON1                           0000088D
OSCCON2                           0000088E
OSCCON3                           0000088F
OSCEN                             00000891
OSCFRQ                            00000893
OSCSTAT                           00000890
OSCTUNE                           00000892
OSFIE                             00000007
OSFIF                             00000007
OUTPS0                            00000000
OUTPS1                            00000001
OUTPS2                            00000002
OUTPS3                            00000003
OUTPUT_HI                         00000070
OUTPUT_LO                         00000071
OUT_CCP1CON                       00000005
OUT_CCP2CON                       00000005
OUT_CCP3CON                       00000005
OUT_CCP4CON                       00000005
OUT_CCP5CON                       00000005
OUT_CLC1CON                       00000005
OUT_CLC2CON                       00000005
OUT_CLC3CON                       00000005
OUT_CLC4CON                       00000005
OUT_CM1CON0                       00000006
OUT_CM2CON0                       00000006
OUT_PWM6CON                       00000005
OUT_PWM7CON                       00000005
OUT_ZCD1CON                       00000005
OUT_ZCDCON                        00000005
OVRA                              00000004
OVRB                              00000005
OVRC                              00000006
OVRD                              00000007
Osc_Init                          00000029
Output2DAC                        0000000C
P                                 00000004
P6TSEL0                           00000002
P6TSEL1                           00000003
P7TSEL0                           00000004
P7TSEL1                           00000005
PCH0                              00000000
PCH1                              00000001
PCH2                              00000002
MPASM 5.73              TESTZ209HARDWARE.ASM   5-2-2018  7:49:22         PAGE 43


SYMBOL TABLE
  LABEL                             VALUE 

PCIE                              00000006
PCL                               00000002
PCLATH                            0000000A
PCLATH_SHAD                       00000FE7
PCON0                             00000813
PEIE                              00000006
PEN                               00000002
PIE0                              00000716
PIE1                              00000717
PIE2                              00000718
PIE3                              00000719
PIE4                              0000071A
PIE5                              0000071B
PIE6                              0000071C
PIE7                              0000071D
PIE8                              0000071E
PIR0                              0000070C
PIR1                              0000070D
PIR2                              0000070E
PIR3                              0000070F
PIR4                              00000710
PIR5                              00000711
PIR6                              00000712
PIR7                              00000713
PIR8                              00000714
PLEN0                             00000000
PLEN1                             00000001
PLEN2                             00000002
PLEN3                             00000003
PLLR                              00000000
PMD0                              00000796
PMD1                              00000797
PMD2                              00000798
PMD3                              00000799
PMD4                              0000079A
PMD5                              0000079B
POLA                              00000000
POLB                              00000001
POLC                              00000002
POLD                              00000003
POL_CLC1POL                       00000007
POL_CLC2POL                       00000007
POL_CLC3POL                       00000007
POL_CLC4POL                       00000007
POL_CM1CON0                       00000004
POL_CM2CON0                       00000004
POL_PWM6CON                       00000004
POL_PWM7CON                       00000004
POL_ZCD1CON                       00000004
POL_ZCDCON                        00000004
PORTA                             0000000C
PORTB                             0000000D
PORTC                             0000000E
MPASM 5.73              TESTZ209HARDWARE.ASM   5-2-2018  7:49:22         PAGE 44


SYMBOL TABLE
  LABEL                             VALUE 

PORTE                             00000010
PPSLOCK                           00000E8F
PPSLOCKED                         00000000
PR0                               0000001D
PR1                               0000020F
PR10                              00000002
PR11                              00000003
PR12                              00000004
PR13                              00000005
PR14                              00000006
PR15                              00000007
PR16                              00000000
PR17                              00000001
PR18                              00000002
PR19                              00000003
PR2                               0000028D
PR20                              00000004
PR21                              00000005
PR22                              00000006
PR23                              00000007
PR3                               00000215
PR4                               00000293
PR5                               0000021B
PR6                               00000299
PR7                               00000007
PR8                               00000000
PR9                               00000001
PS0                               00000000
PS1                               00000001
PSCNT0                            00000000
PSCNT1                            00000001
PSCNT10                           00000002
PSCNT11                           00000003
PSCNT12                           00000004
PSCNT13                           00000005
PSCNT14                           00000006
PSCNT15                           00000007
PSCNT16                           00000000
PSCNT17                           00000001
PSCNT2                            00000002
PSCNT3                            00000003
PSCNT4                            00000004
PSCNT5                            00000005
PSCNT6                            00000006
PSCNT7                            00000007
PSCNT8                            00000000
PSCNT9                            00000001
PSS0                              00000002
PSS1                              00000003
PSYNC                             00000007
PWM6CON                           0000038E
PWM6DC0                           00000006
PWM6DC1                           00000007
MPASM 5.73              TESTZ209HARDWARE.ASM   5-2-2018  7:49:22         PAGE 45


SYMBOL TABLE
  LABEL                             VALUE 

PWM6DC2                           00000000
PWM6DC3                           00000001
PWM6DC4                           00000002
PWM6DC5                           00000003
PWM6DC6                           00000004
PWM6DC7                           00000005
PWM6DC8                           00000006
PWM6DC9                           00000007
PWM6DCH                           0000038D
PWM6DCL                           0000038C
PWM6EN                            00000007
PWM6MD                            00000005
PWM6OE                            00000006
PWM6OUT                           00000005
PWM6POL                           00000004
PWM7CON                           00000392
PWM7DC0                           00000006
PWM7DC1                           00000007
PWM7DC2                           00000000
PWM7DC3                           00000001
PWM7DC4                           00000002
PWM7DC5                           00000003
PWM7DC6                           00000004
PWM7DC7                           00000005
PWM7DC8                           00000006
PWM7DC9                           00000007
PWM7DCH                           00000391
PWM7DCL                           00000390
PWM7EN                            00000007
PWM7MD                            00000006
PWM7OE                            00000006
PWM7OUT                           00000005
PWM7POL                           00000004
PWMPW0                            00000006
PWMPW1                            00000007
PWMPW2                            00000000
PWMPW3                            00000001
PWMPW4                            00000002
PWMPW5                            00000003
PWMPW6                            00000004
PWMPW7                            00000005
PWMPW8                            00000006
PWMPW9                            00000007
RA0                               00000000
RA0PPS                            00000F10
RA0PPS0                           00000000
RA0PPS1                           00000001
RA0PPS2                           00000002
RA0PPS3                           00000003
RA0PPS4                           00000004
RA0PPS5                           00000005
RA1                               00000001
RA1PPS                            00000F11
MPASM 5.73              TESTZ209HARDWARE.ASM   5-2-2018  7:49:22         PAGE 46


SYMBOL TABLE
  LABEL                             VALUE 

RA1PPS0                           00000000
RA1PPS1                           00000001
RA1PPS2                           00000002
RA1PPS3                           00000003
RA1PPS4                           00000004
RA1PPS5                           00000005
RA2                               00000002
RA2PPS                            00000F12
RA2PPS0                           00000000
RA2PPS1                           00000001
RA2PPS2                           00000002
RA2PPS3                           00000003
RA2PPS4                           00000004
RA2PPS5                           00000005
RA3                               00000003
RA3PPS                            00000F13
RA3PPS0                           00000000
RA3PPS1                           00000001
RA3PPS2                           00000002
RA3PPS3                           00000003
RA3PPS4                           00000004
RA3PPS5                           00000005
RA4                               00000004
RA4PPS                            00000F14
RA4PPS0                           00000000
RA4PPS1                           00000001
RA4PPS2                           00000002
RA4PPS3                           00000003
RA4PPS4                           00000004
RA4PPS5                           00000005
RA5                               00000005
RA5PPS                            00000F15
RA5PPS0                           00000000
RA5PPS1                           00000001
RA5PPS2                           00000002
RA5PPS3                           00000003
RA5PPS4                           00000004
RA5PPS5                           00000005
RA6                               00000006
RA6PPS                            00000F16
RA6PPS0                           00000000
RA6PPS1                           00000001
RA6PPS2                           00000002
RA6PPS3                           00000003
RA6PPS4                           00000004
RA6PPS5                           00000005
RA7                               00000007
RA7PPS                            00000F17
RA7PPS0                           00000000
RA7PPS1                           00000001
RA7PPS2                           00000002
RA7PPS3                           00000003
RA7PPS4                           00000004
MPASM 5.73              TESTZ209HARDWARE.ASM   5-2-2018  7:49:22         PAGE 47


SYMBOL TABLE
  LABEL                             VALUE 

RA7PPS5                           00000005
RB0                               00000000
RB0PPS                            00000F18
RB0PPS0                           00000000
RB0PPS1                           00000001
RB0PPS2                           00000002
RB0PPS3                           00000003
RB0PPS4                           00000004
RB0PPS5                           00000005
RB1                               00000001
RB1PPS                            00000F19
RB1PPS0                           00000000
RB1PPS1                           00000001
RB1PPS2                           00000002
RB1PPS3                           00000003
RB1PPS4                           00000004
RB1PPS5                           00000005
RB2                               00000002
RB2PPS                            00000F1A
RB2PPS0                           00000000
RB2PPS1                           00000001
RB2PPS2                           00000002
RB2PPS3                           00000003
RB2PPS4                           00000004
RB2PPS5                           00000005
RB3                               00000003
RB3PPS                            00000F1B
RB3PPS0                           00000000
RB3PPS1                           00000001
RB3PPS2                           00000002
RB3PPS3                           00000003
RB3PPS4                           00000004
RB3PPS5                           00000005
RB4                               00000004
RB4PPS                            00000F1C
RB4PPS0                           00000000
RB4PPS1                           00000001
RB4PPS2                           00000002
RB4PPS3                           00000003
RB4PPS4                           00000004
RB4PPS5                           00000005
RB5                               00000005
RB5PPS                            00000F1D
RB5PPS0                           00000000
RB5PPS1                           00000001
RB5PPS2                           00000002
RB5PPS3                           00000003
RB5PPS4                           00000004
RB5PPS5                           00000005
RB6                               00000006
RB6PPS                            00000F1E
RB6PPS0                           00000000
RB6PPS1                           00000001
MPASM 5.73              TESTZ209HARDWARE.ASM   5-2-2018  7:49:22         PAGE 48


SYMBOL TABLE
  LABEL                             VALUE 

RB6PPS2                           00000002
RB6PPS3                           00000003
RB6PPS4                           00000004
RB6PPS5                           00000005
RB7                               00000007
RB7PPS                            00000F1F
RB7PPS0                           00000000
RB7PPS1                           00000001
RB7PPS2                           00000002
RB7PPS3                           00000003
RB7PPS4                           00000004
RB7PPS5                           00000005
RC0                               00000000
RC0PPS                            00000F20
RC0PPS0                           00000000
RC0PPS1                           00000001
RC0PPS2                           00000002
RC0PPS3                           00000003
RC0PPS4                           00000004
RC0PPS5                           00000005
RC1                               00000001
RC1PPS                            00000F21
RC1PPS0                           00000000
RC1PPS1                           00000001
RC1PPS2                           00000002
RC1PPS3                           00000003
RC1PPS4                           00000004
RC1PPS5                           00000005
RC1REG                            00000119
RC1STA                            0000011D
RC2                               00000002
RC2PPS                            00000F22
RC2PPS0                           00000000
RC2PPS1                           00000001
RC2PPS2                           00000002
RC2PPS3                           00000003
RC2PPS4                           00000004
RC2PPS5                           00000005
RC3                               00000003
RC3PPS                            00000F23
RC3PPS0                           00000000
RC3PPS1                           00000001
RC3PPS2                           00000002
RC3PPS3                           00000003
RC3PPS4                           00000004
RC3PPS5                           00000005
RC4                               00000004
RC4PPS                            00000F24
RC4PPS0                           00000000
RC4PPS1                           00000001
RC4PPS2                           00000002
RC4PPS3                           00000003
RC4PPS4                           00000004
MPASM 5.73              TESTZ209HARDWARE.ASM   5-2-2018  7:49:22         PAGE 49


SYMBOL TABLE
  LABEL                             VALUE 

RC4PPS5                           00000005
RC5                               00000005
RC5PPS                            00000F25
RC5PPS0                           00000000
RC5PPS1                           00000001
RC5PPS2                           00000002
RC5PPS3                           00000003
RC5PPS4                           00000004
RC5PPS5                           00000005
RC6                               00000006
RC6PPS                            00000F26
RC6PPS0                           00000000
RC6PPS1                           00000001
RC6PPS2                           00000002
RC6PPS3                           00000003
RC6PPS4                           00000004
RC6PPS5                           00000005
RC7                               00000007
RC7PPS                            00000F27
RC7PPS0                           00000000
RC7PPS1                           00000001
RC7PPS2                           00000002
RC7PPS3                           00000003
RC7PPS4                           00000004
RC7PPS5                           00000005
RCEN                              00000003
RCIDL                             00000006
RCIE                              00000005
RCIF                              00000005
RCREG                             00000119
RCREG1                            00000119
RCSTA                             0000011D
RCSTA1                            0000011D
RD                                00000000
RD16                              00000001
RE3                               00000003
READ_WRITE                        00000002
REN                               00000006
REPEAT                            00000006
ROI                               00000005
RSEL0                             00000000
RSEL1                             00000001
RSEL2                             00000002
RSEL3                             00000003
RSEL4                             00000004
RSEN                              00000001
RST                               00000005
RX9                               00000006
RX9D                              00000000
RXPPS                             00000ECB
RXPPS0                            00000000
RXPPS1                            00000001
RXPPS2                            00000002
MPASM 5.73              TESTZ209HARDWARE.ASM   5-2-2018  7:49:22         PAGE 50


SYMBOL TABLE
  LABEL                             VALUE 

RXPPS3                            00000003
RXPPS4                            00000004
R_NOT_W                           00000002
R_W                               00000002
Reserved                          00000002
S                                 00000003
SAVETOF                           0x01
SAVETOW                           0x00
SBCDE                             00000002
SBOREN                            00000007
SCANBUSY                          00000005
SCANCON0                          00000410
SCANEN                            00000007
SCANGO                            00000006
SCANHADR0                         00000000
SCANHADR1                         00000001
SCANHADR10                        00000002
SCANHADR11                        00000003
SCANHADR12                        00000004
SCANHADR13                        00000005
SCANHADR14                        00000006
SCANHADR15                        00000007
SCANHADR2                         00000002
SCANHADR3                         00000003
SCANHADR4                         00000004
SCANHADR5                         00000005
SCANHADR6                         00000006
SCANHADR7                         00000007
SCANHADR8                         00000000
SCANHADR9                         00000001
SCANHADRH                         0000040F
SCANHADRL                         0000040E
SCANIE                            00000007
SCANIF                            00000007
SCANINTM                          00000003
SCANINVALID                       00000004
SCANLADR0                         00000000
SCANLADR1                         00000001
SCANLADR10                        00000002
SCANLADR11                        00000003
SCANLADR12                        00000004
SCANLADR13                        00000005
SCANLADR14                        00000006
SCANLADR15                        00000007
SCANLADR2                         00000002
SCANLADR3                         00000003
SCANLADR4                         00000004
SCANLADR5                         00000005
SCANLADR6                         00000006
SCANLADR7                         00000007
SCANLADR8                         00000000
SCANLADR9                         00000001
SCANLADRH                         0000040D
MPASM 5.73              TESTZ209HARDWARE.ASM   5-2-2018  7:49:22         PAGE 51


SYMBOL TABLE
  LABEL                             VALUE 

SCANLADRL                         0000040C
SCANMD                            00000003
SCANMODE0                         00000000
SCANMODE1                         00000001
SCANTRIG                          00000411
SCANTSEL0                         00000000
SCANTSEL1                         00000001
SCANTSEL2                         00000002
SCANTSEL3                         00000003
SCIE                              00000005
SCKP                              00000004
SDAHT                             00000003
SEN                               00000000
SENDB                             00000003
SHFT0                             00000000
SHFT1                             00000001
SHFT10                            00000002
SHFT11                            00000003
SHFT12                            00000004
SHFT13                            00000005
SHFT14                            00000006
SHFT15                            00000007
SHFT2                             00000002
SHFT3                             00000003
SHFT4                             00000004
SHFT5                             00000005
SHFT6                             00000006
SHFT7                             00000007
SHFT8                             00000000
SHFT9                             00000001
SHIFTM                            00000001
SHUTDOWN                          00000007
SLRA0                             00000000
SLRA1                             00000001
SLRA2                             00000002
SLRA3                             00000003
SLRA4                             00000004
SLRA5                             00000005
SLRA6                             00000006
SLRA7                             00000007
SLRB0                             00000000
SLRB1                             00000001
SLRB2                             00000002
SLRB3                             00000003
SLRB4                             00000004
SLRB5                             00000005
SLRB6                             00000006
SLRB7                             00000007
SLRC0                             00000000
SLRC1                             00000001
SLRC2                             00000002
SLRC3                             00000003
SLRC4                             00000004
MPASM 5.73              TESTZ209HARDWARE.ASM   5-2-2018  7:49:22         PAGE 52


SYMBOL TABLE
  LABEL                             VALUE 

SLRC5                             00000005
SLRC6                             00000006
SLRC7                             00000007
SLRCONA                           00000F3B
SLRCONB                           00000F46
SLRCONC                           00000F51
SMP                               00000007
SMT1AS                            00000000
SMT1CLK                           0000049B
SMT1CON0                          00000498
SMT1CON1                          00000499
SMT1CPOL                          00000002
SMT1CPR                           0000048F
SMT1CPR0                          00000000
SMT1CPR1                          00000001
SMT1CPR10                         00000002
SMT1CPR11                         00000003
SMT1CPR12                         00000004
SMT1CPR13                         00000005
SMT1CPR14                         00000006
SMT1CPR15                         00000007
SMT1CPR16                         00000000
SMT1CPR17                         00000001
SMT1CPR18                         00000002
SMT1CPR19                         00000003
SMT1CPR2                          00000002
SMT1CPR20                         00000004
SMT1CPR21                         00000005
SMT1CPR22                         00000006
SMT1CPR23                         00000007
SMT1CPR3                          00000003
SMT1CPR4                          00000004
SMT1CPR5                          00000005
SMT1CPR6                          00000006
SMT1CPR7                          00000007
SMT1CPR8                          00000000
SMT1CPR9                          00000001
SMT1CPRH                          00000490
SMT1CPRL                          0000048F
SMT1CPRU                          00000491
SMT1CPRUP                         00000007
SMT1CPW                           00000492
SMT1CPW0                          00000000
SMT1CPW1                          00000001
SMT1CPW10                         00000002
SMT1CPW11                         00000003
SMT1CPW12                         00000004
SMT1CPW13                         00000005
SMT1CPW14                         00000006
SMT1CPW15                         00000007
SMT1CPW16                         00000000
SMT1CPW17                         00000001
SMT1CPW18                         00000002
MPASM 5.73              TESTZ209HARDWARE.ASM   5-2-2018  7:49:22         PAGE 53


SYMBOL TABLE
  LABEL                             VALUE 

SMT1CPW19                         00000003
SMT1CPW2                          00000002
SMT1CPW20                         00000004
SMT1CPW21                         00000005
SMT1CPW22                         00000006
SMT1CPW23                         00000007
SMT1CPW3                          00000003
SMT1CPW4                          00000004
SMT1CPW5                          00000005
SMT1CPW6                          00000006
SMT1CPW7                          00000007
SMT1CPW8                          00000000
SMT1CPW9                          00000001
SMT1CPWH                          00000493
SMT1CPWL                          00000492
SMT1CPWU                          00000494
SMT1CPWUP                         00000006
SMT1CSEL0                         00000000
SMT1CSEL1                         00000001
SMT1CSEL2                         00000002
SMT1EN                            00000007
SMT1GO                            00000007
SMT1IE                            00000000
SMT1IF                            00000000
SMT1MD                            00000006
SMT1PR                            00000495
SMT1PR0                           00000000
SMT1PR1                           00000001
SMT1PR10                          00000002
SMT1PR11                          00000003
SMT1PR12                          00000004
SMT1PR13                          00000005
SMT1PR14                          00000006
SMT1PR15                          00000007
SMT1PR16                          00000000
SMT1PR17                          00000001
SMT1PR18                          00000002
SMT1PR19                          00000003
SMT1PR2                           00000002
SMT1PR20                          00000004
SMT1PR21                          00000005
SMT1PR22                          00000006
SMT1PR23                          00000007
SMT1PR3                           00000003
SMT1PR4                           00000004
SMT1PR5                           00000005
SMT1PR6                           00000006
SMT1PR7                           00000007
SMT1PR8                           00000000
SMT1PR9                           00000001
SMT1PRAIE                         00000001
SMT1PRAIF                         00000001
SMT1PRH                           00000496
MPASM 5.73              TESTZ209HARDWARE.ASM   5-2-2018  7:49:22         PAGE 54


SYMBOL TABLE
  LABEL                             VALUE 

SMT1PRL                           00000495
SMT1PRU                           00000497
SMT1PS0                           00000000
SMT1PS1                           00000001
SMT1PWAIE                         00000002
SMT1PWAIF                         00000002
SMT1REPEAT                        00000006
SMT1RESET                         00000005
SMT1RST                           00000005
SMT1SIG                           0000049C
SMT1SIGPPS                        00000EAA
SMT1SPOL                          00000003
SMT1SSEL0                         00000000
SMT1SSEL1                         00000001
SMT1SSEL2                         00000002
SMT1SSEL3                         00000003
SMT1SSEL4                         00000004
SMT1STAT                          0000049A
SMT1STP                           00000005
SMT1TMR                           0000048C
SMT1TMR0                          00000000
SMT1TMR1                          00000001
SMT1TMR10                         00000002
SMT1TMR11                         00000003
SMT1TMR12                         00000004
SMT1TMR13                         00000005
SMT1TMR14                         00000006
SMT1TMR15                         00000007
SMT1TMR16                         00000000
SMT1TMR17                         00000001
SMT1TMR18                         00000002
SMT1TMR19                         00000003
SMT1TMR2                          00000002
SMT1TMR20                         00000004
SMT1TMR21                         00000005
SMT1TMR22                         00000006
SMT1TMR23                         00000007
SMT1TMR3                          00000003
SMT1TMR4                          00000004
SMT1TMR5                          00000005
SMT1TMR6                          00000006
SMT1TMR7                          00000007
SMT1TMR8                          00000000
SMT1TMR9                          00000001
SMT1TMRH                          0000048D
SMT1TMRL                          0000048C
SMT1TMRU                          0000048E
SMT1TS                            00000002
SMT1WIN                           0000049D
SMT1WINPPS                        00000EA9
SMT1WOL                           00000004
SMT1WS                            00000001
SMT1WSEL0                         00000000
MPASM 5.73              TESTZ209HARDWARE.ASM   5-2-2018  7:49:22         PAGE 55


SYMBOL TABLE
  LABEL                             VALUE 

SMT1WSEL1                         00000001
SMT1WSEL2                         00000002
SMT1WSEL3                         00000003
SMT1WSEL4                         00000004
SMT2AS                            00000000
SMT2CLK                           0000051B
SMT2CON0                          00000518
SMT2CON1                          00000519
SMT2CPOL                          00000002
SMT2CPR                           0000050F
SMT2CPR0                          00000000
SMT2CPR1                          00000001
SMT2CPR10                         00000002
SMT2CPR11                         00000003
SMT2CPR12                         00000004
SMT2CPR13                         00000005
SMT2CPR14                         00000006
SMT2CPR15                         00000007
SMT2CPR16                         00000000
SMT2CPR17                         00000001
SMT2CPR18                         00000002
SMT2CPR19                         00000003
SMT2CPR2                          00000002
SMT2CPR20                         00000004
SMT2CPR21                         00000005
SMT2CPR22                         00000006
SMT2CPR23                         00000007
SMT2CPR3                          00000003
SMT2CPR4                          00000004
SMT2CPR5                          00000005
SMT2CPR6                          00000006
SMT2CPR7                          00000007
SMT2CPR8                          00000000
SMT2CPR9                          00000001
SMT2CPRH                          00000510
SMT2CPRL                          0000050F
SMT2CPRU                          00000511
SMT2CPRUP                         00000007
SMT2CPW                           00000512
SMT2CPW0                          00000000
SMT2CPW1                          00000001
SMT2CPW10                         00000002
SMT2CPW11                         00000003
SMT2CPW12                         00000004
SMT2CPW13                         00000005
SMT2CPW14                         00000006
SMT2CPW15                         00000007
SMT2CPW16                         00000000
SMT2CPW17                         00000001
SMT2CPW18                         00000002
SMT2CPW19                         00000003
SMT2CPW2                          00000002
SMT2CPW20                         00000004
MPASM 5.73              TESTZ209HARDWARE.ASM   5-2-2018  7:49:22         PAGE 56


SYMBOL TABLE
  LABEL                             VALUE 

SMT2CPW21                         00000005
SMT2CPW22                         00000006
SMT2CPW23                         00000007
SMT2CPW3                          00000003
SMT2CPW4                          00000004
SMT2CPW5                          00000005
SMT2CPW6                          00000006
SMT2CPW7                          00000007
SMT2CPW8                          00000000
SMT2CPW9                          00000001
SMT2CPWH                          00000513
SMT2CPWL                          00000512
SMT2CPWU                          00000514
SMT2CPWUP                         00000006
SMT2CSEL0                         00000000
SMT2CSEL1                         00000001
SMT2CSEL2                         00000002
SMT2EN                            00000007
SMT2GO                            00000007
SMT2IE                            00000003
SMT2IF                            00000003
SMT2MD                            00000007
SMT2PR                            00000515
SMT2PR0                           00000000
SMT2PR1                           00000001
SMT2PR10                          00000002
SMT2PR11                          00000003
SMT2PR12                          00000004
SMT2PR13                          00000005
SMT2PR14                          00000006
SMT2PR15                          00000007
SMT2PR16                          00000000
SMT2PR17                          00000001
SMT2PR18                          00000002
SMT2PR19                          00000003
SMT2PR2                           00000002
SMT2PR20                          00000004
SMT2PR21                          00000005
SMT2PR22                          00000006
SMT2PR23                          00000007
SMT2PR3                           00000003
SMT2PR4                           00000004
SMT2PR5                           00000005
SMT2PR6                           00000006
SMT2PR7                           00000007
SMT2PR8                           00000000
SMT2PR9                           00000001
SMT2PRAIE                         00000004
SMT2PRAIF                         00000004
SMT2PRH                           00000516
SMT2PRL                           00000515
SMT2PRU                           00000517
SMT2PS0                           00000000
MPASM 5.73              TESTZ209HARDWARE.ASM   5-2-2018  7:49:22         PAGE 57


SYMBOL TABLE
  LABEL                             VALUE 

SMT2PS1                           00000001
SMT2PWAIE                         00000005
SMT2PWAIF                         00000005
SMT2REPEAT                        00000006
SMT2RESET                         00000005
SMT2RST                           00000005
SMT2SIG                           0000051C
SMT2SIGPPS                        00000EAC
SMT2SPOL                          00000003
SMT2SSEL0                         00000000
SMT2SSEL1                         00000001
SMT2SSEL2                         00000002
SMT2SSEL3                         00000003
SMT2SSEL4                         00000004
SMT2STAT                          0000051A
SMT2STP                           00000005
SMT2TMR                           0000050C
SMT2TMR0                          00000000
SMT2TMR1                          00000001
SMT2TMR10                         00000002
SMT2TMR11                         00000003
SMT2TMR12                         00000004
SMT2TMR13                         00000005
SMT2TMR14                         00000006
SMT2TMR15                         00000007
SMT2TMR16                         00000000
SMT2TMR17                         00000001
SMT2TMR18                         00000002
SMT2TMR19                         00000003
SMT2TMR2                          00000002
SMT2TMR20                         00000004
SMT2TMR21                         00000005
SMT2TMR22                         00000006
SMT2TMR23                         00000007
SMT2TMR3                          00000003
SMT2TMR4                          00000004
SMT2TMR5                          00000005
SMT2TMR6                          00000006
SMT2TMR7                          00000007
SMT2TMR8                          00000000
SMT2TMR9                          00000001
SMT2TMRH                          0000050D
SMT2TMRL                          0000050C
SMT2TMRU                          0000050E
SMT2TS                            00000002
SMT2WIN                           0000051D
SMT2WINPPS                        00000EAB
SMT2WOL                           00000004
SMT2WS                            00000001
SMT2WSEL0                         00000000
SMT2WSEL1                         00000001
SMT2WSEL2                         00000002
SMT2WSEL3                         00000003
MPASM 5.73              TESTZ209HARDWARE.ASM   5-2-2018  7:49:22         PAGE 58


SYMBOL TABLE
  LABEL                             VALUE 

SMT2WSEL4                         00000004
SMU1SIGPPS0                       00000000
SMU1SIGPPS1                       00000001
SMU1SIGPPS2                       00000002
SMU1SIGPPS3                       00000003
SMU1SIGPPS4                       00000004
SMU1WINPPS0                       00000000
SMU1WINPPS1                       00000001
SMU1WINPPS2                       00000002
SMU1WINPPS3                       00000003
SMU1WINPPS4                       00000004
SMU2SIGPPS0                       00000000
SMU2SIGPPS1                       00000001
SMU2SIGPPS2                       00000002
SMU2SIGPPS3                       00000003
SMU2SIGPPS4                       00000004
SMU2WINPPS0                       00000000
SMU2WINPPS1                       00000001
SMU2WINPPS2                       00000002
SMU2WINPPS3                       00000003
SMU2WINPPS4                       00000004
SOR                               00000003
SOSCEN                            00000003
SOSCPWR                           00000006
SP1BRG                            0000011B
SP1BRGH                           0000011C
SP1BRGL                           0000011B
SPBRG                             0000011B
SPBRG1                            0000011B
SPBRGH                            0000011C
SPBRGH1                           0000011C
SPBRGL                            0000011B
SPEN                              00000007
SPOL                              00000003
SREN                              00000005
SSEL0                             00000000
SSEL1                             00000001
SSEL2                             00000002
SSEL3                             00000003
SSEL4                             00000004
SSP1ADD                           0000018D
SSP1BUF                           0000018C
SSP1CLKPPS                        00000EC5
SSP1CLKPPS0                       00000000
SSP1CLKPPS1                       00000001
SSP1CLKPPS2                       00000002
SSP1CLKPPS3                       00000003
SSP1CLKPPS4                       00000004
SSP1CON1                          00000190
SSP1CON2                          00000191
SSP1CON3                          00000192
SSP1DATPPS                        00000EC6
SSP1DATPPS0                       00000000
MPASM 5.73              TESTZ209HARDWARE.ASM   5-2-2018  7:49:22         PAGE 59


SYMBOL TABLE
  LABEL                             VALUE 

SSP1DATPPS1                       00000001
SSP1DATPPS2                       00000002
SSP1DATPPS3                       00000003
SSP1DATPPS4                       00000004
SSP1IE                            00000000
SSP1IF                            00000000
SSP1MSK                           0000018E
SSP1SSPPS                         00000EC7
SSP1SSPPS0                        00000000
SSP1SSPPS1                        00000001
SSP1SSPPS2                        00000002
SSP1SSPPS3                        00000003
SSP1SSPPS4                        00000004
SSP1STAT                          0000018F
SSP2ADD                           00000197
SSP2BUF                           00000196
SSP2CLKPPS                        00000EC8
SSP2CLKPPS0                       00000000
SSP2CLKPPS1                       00000001
SSP2CLKPPS2                       00000002
SSP2CLKPPS3                       00000003
SSP2CLKPPS4                       00000004
SSP2CON1                          0000019A
SSP2CON2                          0000019B
SSP2CON3                          0000019C
SSP2DATPPS                        00000EC9
SSP2DATPPS0                       00000000
SSP2DATPPS1                       00000001
SSP2DATPPS2                       00000002
SSP2DATPPS3                       00000003
SSP2DATPPS4                       00000004
SSP2IE                            00000002
SSP2IF                            00000002
SSP2MSK                           00000198
SSP2SSPPS                         00000ECA
SSP2SSPPS0                        00000000
SSP2SSPPS1                        00000001
SSP2SSPPS2                        00000002
SSP2SSPPS3                        00000003
SSP2SSPPS4                        00000004
SSP2STAT                          00000199
SSPEN                             00000005
SSPM0                             00000000
SSPM1                             00000001
SSPM2                             00000002
SSPM3                             00000003
SSPOV                             00000006
START                             00000000
STATE                             00000002
STATUS                            00000003
STATUS_SHAD                       00000FE4
STEPSIZE                          0x10
STKOVF                            00000007
MPASM 5.73              TESTZ209HARDWARE.ASM   5-2-2018  7:49:22         PAGE 60


SYMBOL TABLE
  LABEL                             VALUE 

STKPTR                            00000FED
STKUNF                            00000006
STP                               00000005
STRA                              00000000
STRB                              00000001
STRC                              00000002
STRD                              00000003
SWDTEN                            00000000
SYNC_CM1CON0                      00000000
SYNC_CM2CON0                      00000000
SYNC_TX1STA                       00000004
SYNC_TXSTA                        00000004
SYNC_TXSTA1                       00000004
SYSCMD                            00000007
T016BIT                           00000004
T0ASYNC                           00000004
T0CKIPPS                          00000E91
T0CKIPPS0                         00000000
T0CKIPPS1                         00000001
T0CKIPPS2                         00000002
T0CKIPPS3                         00000003
T0CKPS0                           00000000
T0CKPS1                           00000001
T0CKPS2                           00000002
T0CKPS3                           00000003
T0CON0                            0000001E
T0CON1                            0000001F
T0CS0                             00000005
T0CS1                             00000006
T0CS2                             00000007
T0EN                              00000007
T0OUT                             00000005
T0OUTPS0                          00000000
T0OUTPS1                          00000001
T0OUTPS2                          00000002
T0OUTPS3                          00000003
T0PR0                             00000000
T0PR1                             00000001
T0PR2                             00000002
T0PR3                             00000003
T0PR4                             00000004
T0PR5                             00000005
T0PR6                             00000006
T0PR7                             00000007
T0PS0                             00000000
T0PS1                             00000001
T0PS2                             00000002
T0PS3                             00000003
T1CKIPPS                          00000E92
T1CKIPPS0                         00000000
T1CKIPPS1                         00000001
T1CKIPPS2                         00000002
T1CKIPPS3                         00000003
MPASM 5.73              TESTZ209HARDWARE.ASM   5-2-2018  7:49:22         PAGE 61


SYMBOL TABLE
  LABEL                             VALUE 

T1CKIPPS4                         00000004
T1CKPS0                           00000004
T1CKPS1                           00000005
T1CLK                             00000211
T1CON                             0000020E
T1CS0                             00000000
T1CS1                             00000001
T1CS2                             00000002
T1CS3                             00000003
T1GATE                            00000210
T1GCON                            0000020F
T1GE                              00000007
T1GGO                             00000003
T1GGO_NOT_DONE                    00000003
T1GPOL                            00000006
T1GPPS                            00000E93
T1GPPS0                           00000000
T1GPPS1                           00000001
T1GPPS2                           00000002
T1GPPS3                           00000003
T1GPPS4                           00000004
T1GSPM                            00000004
T1GSS0                            00000000
T1GSS1                            00000001
T1GSS2                            00000002
T1GSS3                            00000003
T1GSS4                            00000004
T1GTM                             00000005
T1GVAL                            00000002
T1RD16                            00000001
T2AINPPS                          00000E9C
T2AINPPS0                         00000000
T2AINPPS1                         00000001
T2AINPPS2                         00000002
T2AINPPS3                         00000003
T2AINPPS4                         00000004
T2CKPOL                           00000006
T2CKPS0                           00000004
T2CKPS1                           00000005
T2CKPS2                           00000006
T2CKSYNC                          00000005
T2CLK                             00000290
T2CLKCON                          00000290
T2CON                             0000028E
T2CS0                             00000000
T2CS1                             00000001
T2CS2                             00000002
T2CS3                             00000003
T2HLT                             0000028F
T2MODE0                           00000000
T2MODE1                           00000001
T2MODE2                           00000002
T2MODE3                           00000003
MPASM 5.73              TESTZ209HARDWARE.ASM   5-2-2018  7:49:22         PAGE 62


SYMBOL TABLE
  LABEL                             VALUE 

T2MODE4                           00000004
T2ON                              00000007
T2OUTPS0                          00000000
T2OUTPS1                          00000001
T2OUTPS2                          00000002
T2OUTPS3                          00000003
T2PR                              0000028D
T2PSYNC                           00000007
T2RSEL0                           00000000
T2RSEL1                           00000001
T2RSEL2                           00000002
T2RSEL3                           00000003
T2RSEL4                           00000004
T2RST                             00000291
T2TMR                             0000028C
T3CKIPPS                          00000E94
T3CKIPPS0                         00000000
T3CKIPPS1                         00000001
T3CKIPPS2                         00000002
T3CKIPPS3                         00000003
T3CKIPPS4                         00000004
T3CKPS0                           00000004
T3CKPS1                           00000005
T3CLK                             00000217
T3CON                             00000214
T3CS0                             00000000
T3CS1                             00000001
T3CS2                             00000002
T3CS3                             00000003
T3GATE                            00000216
T3GCON                            00000215
T3GE                              00000007
T3GGO                             00000003
T3GGO_NOT_DONE                    00000003
T3GPOL                            00000006
T3GPPS                            00000E95
T3GPPS0                           00000000
T3GPPS1                           00000001
T3GPPS2                           00000002
T3GPPS3                           00000003
T3GPPS4                           00000004
T3GSPM                            00000004
T3GSS0                            00000000
T3GSS1                            00000001
T3GSS2                            00000002
T3GSS3                            00000003
T3GSS4                            00000004
T3GTM                             00000005
T3GVAL                            00000002
T3RD16                            00000001
T4AINPPS                          00000E9D
T4AINPPS0                         00000000
T4AINPPS1                         00000001
MPASM 5.73              TESTZ209HARDWARE.ASM   5-2-2018  7:49:22         PAGE 63


SYMBOL TABLE
  LABEL                             VALUE 

T4AINPPS2                         00000002
T4AINPPS3                         00000003
T4AINPPS4                         00000004
T4CKPOL                           00000006
T4CKPS0                           00000004
T4CKPS1                           00000005
T4CKPS2                           00000006
T4CKSYNC                          00000005
T4CLK                             00000296
T4CLKCON                          00000296
T4CON                             00000294
T4CS0                             00000000
T4CS1                             00000001
T4CS2                             00000002
T4CS3                             00000003
T4HLT                             00000295
T4MODE0                           00000000
T4MODE1                           00000001
T4MODE2                           00000002
T4MODE3                           00000003
T4MODE4                           00000004
T4ON                              00000007
T4OUTPS0                          00000000
T4OUTPS1                          00000001
T4OUTPS2                          00000002
T4OUTPS3                          00000003
T4PR                              00000293
T4PSYNC                           00000007
T4RSEL0                           00000000
T4RSEL1                           00000001
T4RSEL2                           00000002
T4RSEL3                           00000003
T4RSEL4                           00000004
T4RST                             00000297
T4TMR                             00000292
T5CKIPPS                          00000E96
T5CKIPPS0                         00000000
T5CKIPPS1                         00000001
T5CKIPPS2                         00000002
T5CKIPPS3                         00000003
T5CKIPPS4                         00000004
T5CKPS0                           00000004
T5CKPS1                           00000005
T5CLK                             0000021D
T5CON                             0000021A
T5CS0                             00000000
T5CS1                             00000001
T5CS2                             00000002
T5CS3                             00000003
T5GATE                            0000021C
T5GCON                            0000021B
T5GE                              00000007
T5GGO                             00000003
MPASM 5.73              TESTZ209HARDWARE.ASM   5-2-2018  7:49:22         PAGE 64


SYMBOL TABLE
  LABEL                             VALUE 

T5GGO_NOT_DONE                    00000003
T5GPOL                            00000006
T5GPPS                            00000E97
T5GPPS0                           00000000
T5GPPS1                           00000001
T5GPPS2                           00000002
T5GPPS3                           00000003
T5GPPS4                           00000004
T5GSPM                            00000004
T5GSS0                            00000000
T5GSS1                            00000001
T5GSS2                            00000002
T5GSS3                            00000003
T5GSS4                            00000004
T5GTM                             00000005
T5GVAL                            00000002
T5RD16                            00000001
T6AINPPS                          00000E9E
T6AINPPS0                         00000000
T6AINPPS1                         00000001
T6AINPPS2                         00000002
T6AINPPS3                         00000003
T6AINPPS4                         00000004
T6CKPOL                           00000006
T6CKPS0                           00000004
T6CKPS1                           00000005
T6CKPS2                           00000006
T6CKSYNC                          00000005
T6CLK                             0000029C
T6CLKCON                          0000029C
T6CON                             0000029A
T6CS0                             00000000
T6CS1                             00000001
T6CS2                             00000002
T6CS3                             00000003
T6HLT                             0000029B
T6MODE0                           00000000
T6MODE1                           00000001
T6MODE2                           00000002
T6MODE3                           00000003
T6MODE4                           00000004
T6ON                              00000007
T6OUTPS0                          00000000
T6OUTPS1                          00000001
T6OUTPS2                          00000002
T6OUTPS3                          00000003
T6PR                              00000299
T6PSYNC                           00000007
T6RSEL0                           00000000
T6RSEL1                           00000001
T6RSEL2                           00000002
T6RSEL3                           00000003
T6RSEL4                           00000004
MPASM 5.73              TESTZ209HARDWARE.ASM   5-2-2018  7:49:22         PAGE 65


SYMBOL TABLE
  LABEL                             VALUE 

T6RST                             0000029D
T6TMR                             00000298
TMR0                              0000001C
TMR0H                             0000001D
TMR0H0                            00000000
TMR0H1                            00000001
TMR0H2                            00000002
TMR0H3                            00000003
TMR0H4                            00000004
TMR0H5                            00000005
TMR0H6                            00000006
TMR0H7                            00000007
TMR0IE                            00000005
TMR0IF                            00000005
TMR0L                             0000001C
TMR0L0                            00000000
TMR0L1                            00000001
TMR0L2                            00000002
TMR0L3                            00000003
TMR0L4                            00000004
TMR0L5                            00000005
TMR0L6                            00000006
TMR0L7                            00000007
TMR0MD                            00000000
TMR1                              0000020C
TMR10_SMT1TMRH                    00000002
TMR10_SMT2TMRH                    00000002
TMR10_TMR1L                       00000000
TMR110                            00000002
TMR111                            00000003
TMR112                            00000004
TMR113                            00000005
TMR114                            00000006
TMR115                            00000007
TMR11_SMT1TMRH                    00000003
TMR11_SMT2TMRH                    00000003
TMR11_TMR1L                       00000001
TMR12_SMT1TMRH                    00000004
TMR12_SMT2TMRH                    00000004
TMR12_TMR1L                       00000002
TMR13_SMT1TMRH                    00000005
TMR13_SMT2TMRH                    00000005
TMR13_TMR1L                       00000003
TMR14_SMT1TMRH                    00000006
TMR14_SMT2TMRH                    00000006
TMR14_TMR1L                       00000004
TMR15_SMT1TMRH                    00000007
TMR15_SMT2TMRH                    00000007
TMR15_TMR1L                       00000005
TMR16_SMT1TMRU                    00000000
TMR16_SMT2TMRU                    00000000
TMR16_TMR1L                       00000006
TMR17_SMT1TMRU                    00000001
MPASM 5.73              TESTZ209HARDWARE.ASM   5-2-2018  7:49:22         PAGE 66


SYMBOL TABLE
  LABEL                             VALUE 

TMR17_SMT2TMRU                    00000001
TMR17_TMR1L                       00000007
TMR18_SMT1TMRU                    00000002
TMR18_SMT2TMRU                    00000002
TMR18_TMR1H                       00000000
TMR19_SMT1TMRU                    00000003
TMR19_SMT2TMRU                    00000003
TMR19_TMR1H                       00000001
TMR1CLK                           00000211
TMR1GATE                          00000210
TMR1GIE                           00000000
TMR1GIF                           00000000
TMR1H                             0000020D
TMR1H0                            00000000
TMR1H1                            00000001
TMR1H2                            00000002
TMR1H3                            00000003
TMR1H4                            00000004
TMR1H5                            00000005
TMR1H6                            00000006
TMR1H7                            00000007
TMR1IE                            00000000
TMR1IF                            00000000
TMR1L                             0000020C
TMR1L0                            00000000
TMR1L1                            00000001
TMR1L2                            00000002
TMR1L3                            00000003
TMR1L4                            00000004
TMR1L5                            00000005
TMR1L6                            00000006
TMR1L7                            00000007
TMR1MD                            00000001
TMR1ON                            00000000
TMR2                              0000028C
TMR20                             00000004
TMR21                             00000005
TMR22                             00000006
TMR23                             00000007
TMR2IE                            00000001
TMR2IF                            00000001
TMR2MD                            00000002
TMR2ON                            00000007
TMR3                              00000212
TMR30                             00000000
TMR31                             00000001
TMR310                            00000002
TMR311                            00000003
TMR312                            00000004
TMR313                            00000005
TMR314                            00000006
TMR315                            00000007
TMR32                             00000002
MPASM 5.73              TESTZ209HARDWARE.ASM   5-2-2018  7:49:22         PAGE 67


SYMBOL TABLE
  LABEL                             VALUE 

TMR33                             00000003
TMR34                             00000004
TMR35                             00000005
TMR36                             00000006
TMR37                             00000007
TMR38                             00000000
TMR39                             00000001
TMR3CLK                           00000217
TMR3GATE                          00000216
TMR3GIE                           00000001
TMR3GIF                           00000001
TMR3H                             00000213
TMR3H0                            00000000
TMR3H1                            00000001
TMR3H2                            00000002
TMR3H3                            00000003
TMR3H4                            00000004
TMR3H5                            00000005
TMR3H6                            00000006
TMR3H7                            00000007
TMR3IE                            00000002
TMR3IF                            00000002
TMR3L                             00000212
TMR3L0                            00000000
TMR3L1                            00000001
TMR3L2                            00000002
TMR3L3                            00000003
TMR3L4                            00000004
TMR3L5                            00000005
TMR3L6                            00000006
TMR3L7                            00000007
TMR3MD                            00000003
TMR3ON                            00000000
TMR4                              00000292
TMR4IE                            00000003
TMR4IF                            00000003
TMR4MD                            00000004
TMR4ON                            00000007
TMR5                              00000218
TMR50                             00000000
TMR51                             00000001
TMR510                            00000002
TMR511                            00000003
TMR512                            00000004
TMR513                            00000005
TMR514                            00000006
TMR515                            00000007
TMR52                             00000002
TMR53                             00000003
TMR54                             00000004
TMR55                             00000005
TMR56                             00000006
TMR57                             00000007
MPASM 5.73              TESTZ209HARDWARE.ASM   5-2-2018  7:49:22         PAGE 68


SYMBOL TABLE
  LABEL                             VALUE 

TMR58                             00000000
TMR59                             00000001
TMR5CLK                           0000021D
TMR5GATE                          0000021C
TMR5GIE                           00000002
TMR5GIF                           00000002
TMR5H                             00000219
TMR5H0                            00000000
TMR5H1                            00000001
TMR5H2                            00000002
TMR5H3                            00000003
TMR5H4                            00000004
TMR5H5                            00000005
TMR5H6                            00000006
TMR5H7                            00000007
TMR5IE                            00000004
TMR5IF                            00000004
TMR5L                             00000218
TMR5L0                            00000000
TMR5L1                            00000001
TMR5L2                            00000002
TMR5L3                            00000003
TMR5L4                            00000004
TMR5L5                            00000005
TMR5L6                            00000006
TMR5L7                            00000007
TMR5MD                            00000005
TMR5ON                            00000000
TMR6                              00000298
TMR6IE                            00000005
TMR6IF                            00000005
TMR6MD                            00000006
TMR6ON                            00000007
TMR7                              00000007
TMR8                              00000000
TMR9                              00000001
TOSH                              00000FEF
TOSL                              00000FEE
TRISA                             00000011
TRISA0                            00000000
TRISA1                            00000001
TRISA2                            00000002
TRISA3                            00000003
TRISA4                            00000004
TRISA5                            00000005
TRISA6                            00000006
TRISA7                            00000007
TRISB                             00000012
TRISB0                            00000000
TRISB1                            00000001
TRISB2                            00000002
TRISB3                            00000003
TRISB4                            00000004
MPASM 5.73              TESTZ209HARDWARE.ASM   5-2-2018  7:49:22         PAGE 69


SYMBOL TABLE
  LABEL                             VALUE 

TRISB5                            00000005
TRISB6                            00000006
TRISB7                            00000007
TRISC                             00000013
TRISC0                            00000000
TRISC1                            00000001
TRISC2                            00000002
TRISC3                            00000003
TRISC4                            00000004
TRISC5                            00000005
TRISC6                            00000006
TRISC7                            00000007
TRMT                              00000001
TS                                00000002
TSEL0                             00000000
TSEL1                             00000001
TSEL2                             00000002
TSEL3                             00000003
TSEN                              00000005
TSRNG                             00000004
TX1REG                            0000011A
TX1STA                            0000011E
TX9                               00000006
TX9D                              00000000
TXEN                              00000005
TXIE                              00000004
TXIF                              00000004
TXPPS                             00000ECC
TXPPS0                            00000000
TXPPS1                            00000001
TXPPS2                            00000002
TXPPS3                            00000003
TXPPS4                            00000004
TXREG                             0000011A
TXREG1                            0000011A
TXSTA                             0000011E
TXSTA1                            0000011E
Toggle_LED                        00000016
UA                                00000001
UART1MD                           00000006
USEACCESSBANK                     0x00
USEBSR                            0x01
VREGCON                           00000812
VREGPM                            00000001
VREGPM0                           00000000
VREGPM1                           00000001
W                                 00000000
WCOL                              00000007
WDTCON0                           0000080C
WDTCON1                           0000080D
WDTCS0                            00000004
WDTCS1                            00000005
WDTCS2                            00000006
MPASM 5.73              TESTZ209HARDWARE.ASM   5-2-2018  7:49:22         PAGE 70


SYMBOL TABLE
  LABEL                             VALUE 

WDTPS0                            00000001
WDTPS1                            00000002
WDTPS2                            00000003
WDTPS3                            00000004
WDTPS4                            00000005
WDTPSCNT0                         00000000
WDTPSCNT1                         00000001
WDTPSCNT10                        00000002
WDTPSCNT11                        00000003
WDTPSCNT12                        00000004
WDTPSCNT13                        00000005
WDTPSCNT14                        00000006
WDTPSCNT15                        00000007
WDTPSCNT16                        00000000
WDTPSCNT17                        00000001
WDTPSCNT2                         00000002
WDTPSCNT3                         00000003
WDTPSCNT4                         00000004
WDTPSCNT5                         00000005
WDTPSCNT6                         00000006
WDTPSCNT7                         00000007
WDTPSCNT8                         00000000
WDTPSCNT9                         00000001
WDTPSH                            0000080F
WDTPSL                            0000080E
WDTSEN                            00000000
WDTSTATE                          00000002
WDTTMR                            00000810
WDTTMR0                           00000003
WDTTMR1                           00000004
WDTTMR2                           00000005
WDTTMR3                           00000006
WDTWINDOW0                        00000000
WDTWINDOW1                        00000001
WDTWINDOW2                        00000002
WINDOW0                           00000000
WINDOW1                           00000001
WINDOW2                           00000002
WPOL                              00000004
WPUA                              00000F39
WPUA0                             00000000
WPUA1                             00000001
WPUA2                             00000002
WPUA3                             00000003
WPUA4                             00000004
WPUA5                             00000005
WPUA6                             00000006
WPUA7                             00000007
WPUB                              00000F44
WPUB0                             00000000
WPUB1                             00000001
WPUB2                             00000002
WPUB3                             00000003
MPASM 5.73              TESTZ209HARDWARE.ASM   5-2-2018  7:49:22         PAGE 71


SYMBOL TABLE
  LABEL                             VALUE 

WPUB4                             00000004
WPUB5                             00000005
WPUB6                             00000006
WPUB7                             00000007
WPUC                              00000F4F
WPUC0                             00000000
WPUC1                             00000001
WPUC2                             00000002
WPUC3                             00000003
WPUC4                             00000004
WPUC5                             00000005
WPUC6                             00000006
WPUC7                             00000007
WPUE                              00000F65
WPUE3                             00000003
WR                                00000001
WREG                              00000009
WREG_SHAD                         00000FE5
WREN                              00000002
WRERR                             00000003
WS                                00000001
WSEL0                             00000000
WSEL1                             00000001
WSEL2                             00000002
WSEL3                             00000003
WSEL4                             00000004
WUE                               00000001
X1                                00000001
X10                               00000002
X11                               00000003
X12                               00000004
X13                               00000005
X14                               00000006
X15                               00000007
X2                                00000002
X3                                00000003
X4                                00000004
X5                                00000005
X6                                00000006
X7                                00000007
X8                                00000000
X9                                00000001
Z                                 00000002
ZCD1CON                           0000091F
ZCD1EN                            00000007
ZCD1INTN                          00000000
ZCD1INTP                          00000001
ZCD1OUT                           00000005
ZCD1POL                           00000004
ZCDCON                            0000091F
ZCDEN                             00000007
ZCDIE                             00000006
ZCDIF                             00000006
MPASM 5.73              TESTZ209HARDWARE.ASM   5-2-2018  7:49:22         PAGE 72


SYMBOL TABLE
  LABEL                             VALUE 

ZCDINTN                           00000000
ZCDINTP                           00000001
ZCDMD                             00000000
ZCDOUT                            00000005
ZCDPOL                            00000004
ZERO                              STATUS,Z
Z_SHAD                            00000002
_BOREN_NSLEEP                     00003FBF
_BOREN_OFF                        00003F3F
_BOREN_ON                         00003FFF
_BOREN_SBOREN                     00003F7F
_BORV_HI                          00003DFF
_BORV_LO                          00003FFF
_CLKOUTEN_OFF                     00003FFF
_CLKOUTEN_ON                      00003EFF
_CONFIG1                          00008007
_CONFIG2                          00008008
_CONFIG3                          00008009
_CONFIG4                          0000800A
_CONFIG5                          0000800B
_CPD_OFF                          00003FFF
_CPD_ON                           00003FFD
_CP_OFF                           00003FFF
_CP_ON                            00003FFE
_CSWEN_OFF                        000037FF
_CSWEN_ON                         00003FFF
_DEBUG_OFF                        00003FFF
_DEBUG_ON                         00001FFF
_DEVID1                           00008006
_FCMEN_OFF                        00001FFF
_FCMEN_ON                         00003FFF
_FEXTOSC_ECH                      00003FFF
_FEXTOSC_ECL                      00003FFD
_FEXTOSC_ECM                      00003FFE
_FEXTOSC_HS                       00003FFA
_FEXTOSC_LP                       00003FF8
_FEXTOSC_OFF                      00003FFC
_FEXTOSC_Reserved                 00003FFB
_FEXTOSC_XT                       00003FF9
_IDLOC0                           00008000
_IDLOC1                           00008001
_IDLOC2                           00008002
_IDLOC3                           00008003
_LPBOREN_OFF                      00003FFF
_LPBOREN_ON                       00003FDF
_LVP_OFF                          00001FFF
_LVP_ON                           00003FFF
_MCLRE_OFF                        00003FFE
_MCLRE_ON                         00003FFF
_PPS1WAY_OFF                      000037FF
_PPS1WAY_ON                       00003FFF
_PWRTE_OFF                        00003FFF
_PWRTE_ON                         00003FFD
MPASM 5.73              TESTZ209HARDWARE.ASM   5-2-2018  7:49:22         PAGE 73


SYMBOL TABLE
  LABEL                             VALUE 

_RSTOSC_EXT1X                     00003FFF
_RSTOSC_EXT4X                     00003FAF
_RSTOSC_HFINT1                    00003FEF
_RSTOSC_HFINT32                   00003F8F
_RSTOSC_HFINTPLL                  00003F9F
_RSTOSC_LFINT                     00003FDF
_RSTOSC_Reserved                  00003FBF
_RSTOSC_SOSC                      00003FCF
_SCANE_available                  00003FFF
_SCANE_not_available              00002FFF
_STVREN_OFF                       00002FFF
_STVREN_ON                        00003FFF
_WDTCCS_HFINTOSC                  00000FFF
_WDTCCS_LFINTOSC                  000007FF
_WDTCCS_SC                        00003FFF
_WDTCPS_WDTCPS_0                  00003FE0
_WDTCPS_WDTCPS_1                  00003FE1
_WDTCPS_WDTCPS_10                 00003FEA
_WDTCPS_WDTCPS_11                 00003FEB
_WDTCPS_WDTCPS_12                 00003FEC
_WDTCPS_WDTCPS_13                 00003FED
_WDTCPS_WDTCPS_14                 00003FEE
_WDTCPS_WDTCPS_15                 00003FEF
_WDTCPS_WDTCPS_16                 00003FF0
_WDTCPS_WDTCPS_17                 00003FF1
_WDTCPS_WDTCPS_18                 00003FF2
_WDTCPS_WDTCPS_19                 00003FF3
_WDTCPS_WDTCPS_2                  00003FE2
_WDTCPS_WDTCPS_20                 00003FF4
_WDTCPS_WDTCPS_21                 00003FF5
_WDTCPS_WDTCPS_22                 00003FF6
_WDTCPS_WDTCPS_23                 00003FF7
_WDTCPS_WDTCPS_24                 00003FF8
_WDTCPS_WDTCPS_25                 00003FF9
_WDTCPS_WDTCPS_26                 00003FFA
_WDTCPS_WDTCPS_27                 00003FFB
_WDTCPS_WDTCPS_28                 00003FFC
_WDTCPS_WDTCPS_29                 00003FFD
_WDTCPS_WDTCPS_3                  00003FE3
_WDTCPS_WDTCPS_30                 00003FFE
_WDTCPS_WDTCPS_31                 00003FFF
_WDTCPS_WDTCPS_4                  00003FE4
_WDTCPS_WDTCPS_5                  00003FE5
_WDTCPS_WDTCPS_6                  00003FE6
_WDTCPS_WDTCPS_7                  00003FE7
_WDTCPS_WDTCPS_8                  00003FE8
_WDTCPS_WDTCPS_9                  00003FE9
_WDTCWS_WDTCWS_0                  000038FF
_WDTCWS_WDTCWS_1                  000039FF
_WDTCWS_WDTCWS_2                  00003AFF
_WDTCWS_WDTCWS_3                  00003BFF
_WDTCWS_WDTCWS_4                  00003CFF
_WDTCWS_WDTCWS_5                  00003DFF
MPASM 5.73              TESTZ209HARDWARE.ASM   5-2-2018  7:49:22         PAGE 74


SYMBOL TABLE
  LABEL                             VALUE 

_WDTCWS_WDTCWS_6                  00003EFF
_WDTCWS_WDTCWS_7                  00003FFF
_WDTE_NSLEEP                      00003FDF
_WDTE_OFF                         00003F9F
_WDTE_ON                          00003FFF
_WDTE_SWDTEN                      00003FBF
_WRT_OFF                          00003FFF
_WRT_ON                           00003FFC
_WRT_WRT_lower                    00003FFD
_WRT_WRT_upper                    00003FFE
_ZCD_OFF                          00003FFF
_ZCD_ON                           00003BFF
__16F18855                        00000001
d1                                00000072
innerLoop                         00000037
ledCounter                        00000022

Errors   :     0
Warnings :     0 reported,     0 suppressed
Messages :     1 reported,     9 suppressed

